
coremark.elf:     file format elf32-littleriscv


Disassembly of section .text:

00001000 <iterate>:
    1000:	ff010113          	addi	sp,sp,-16
    1004:	01212023          	sw	s2,0(sp)
    1008:	01c52903          	lw	s2,28(a0)
    100c:	00112623          	sw	ra,12(sp)
    1010:	00812423          	sw	s0,8(sp)
    1014:	00912223          	sw	s1,4(sp)
    1018:	02052c23          	sw	zero,56(a0)
    101c:	02052e23          	sw	zero,60(a0)
    1020:	04090663          	beqz	s2,106c <iterate+0x6c>
    1024:	00050413          	mv	s0,a0
    1028:	00000493          	li	s1,0
    102c:	00100593          	li	a1,1
    1030:	00040513          	mv	a0,s0
    1034:	6d5000ef          	jal	ra,1f08 <core_bench_list>
    1038:	03845583          	lhu	a1,56(s0)
    103c:	1f5000ef          	jal	ra,1a30 <crcu16>
    1040:	fff00593          	li	a1,-1
    1044:	02a41c23          	sh	a0,56(s0)
    1048:	00040513          	mv	a0,s0
    104c:	6bd000ef          	jal	ra,1f08 <core_bench_list>
    1050:	03845583          	lhu	a1,56(s0)
    1054:	1dd000ef          	jal	ra,1a30 <crcu16>
    1058:	02a41c23          	sh	a0,56(s0)
    105c:	00049463          	bnez	s1,1064 <iterate+0x64>
    1060:	02a41d23          	sh	a0,58(s0)
    1064:	00148493          	addi	s1,s1,1
    1068:	fc9912e3          	bne	s2,s1,102c <iterate+0x2c>
    106c:	00c12083          	lw	ra,12(sp)
    1070:	00812403          	lw	s0,8(sp)
    1074:	00412483          	lw	s1,4(sp)
    1078:	00012903          	lw	s2,0(sp)
    107c:	00000513          	li	a0,0
    1080:	01010113          	addi	sp,sp,16
    1084:	00008067          	ret

00001088 <main>:
    1088:	00008537          	lui	a0,0x8
    108c:	f7010113          	addi	sp,sp,-144
    1090:	00c50513          	addi	a0,a0,12 # 800c <mem_name+0xc>
    1094:	08112623          	sw	ra,140(sp)
    1098:	08812423          	sw	s0,136(sp)
    109c:	08912223          	sw	s1,132(sp)
    10a0:	09212023          	sw	s2,128(sp)
    10a4:	07312e23          	sw	s3,124(sp)
    10a8:	07412c23          	sw	s4,120(sp)
    10ac:	07512a23          	sw	s5,116(sp)
    10b0:	07612823          	sw	s6,112(sp)
    10b4:	07712623          	sw	s7,108(sp)
    10b8:	07812423          	sw	s8,104(sp)
    10bc:	07912223          	sw	s9,100(sp)
    10c0:	07a12023          	sw	s10,96(sp)
    10c4:	05b12e23          	sw	s11,92(sp)
    10c8:	00012223          	sw	zero,4(sp)
    10cc:	3e8020ef          	jal	ra,34b4 <printf>
    10d0:	00810613          	addi	a2,sp,8
    10d4:	00410593          	addi	a1,sp,4
    10d8:	04e10513          	addi	a0,sp,78
    10dc:	099000ef          	jal	ra,1974 <portable_init>
    10e0:	00100513          	li	a0,1
    10e4:	0a5000ef          	jal	ra,1988 <get_seed_32>
    10e8:	00050793          	mv	a5,a0
    10ec:	00200513          	li	a0,2
    10f0:	00f11623          	sh	a5,12(sp)
    10f4:	095000ef          	jal	ra,1988 <get_seed_32>
    10f8:	00050793          	mv	a5,a0
    10fc:	00300513          	li	a0,3
    1100:	00f11723          	sh	a5,14(sp)
    1104:	085000ef          	jal	ra,1988 <get_seed_32>
    1108:	00050793          	mv	a5,a0
    110c:	00400513          	li	a0,4
    1110:	00f11823          	sh	a5,16(sp)
    1114:	075000ef          	jal	ra,1988 <get_seed_32>
    1118:	00050793          	mv	a5,a0
    111c:	00500513          	li	a0,5
    1120:	02f12423          	sw	a5,40(sp)
    1124:	065000ef          	jal	ra,1988 <get_seed_32>
    1128:	00c12783          	lw	a5,12(sp)
    112c:	00700713          	li	a4,7
    1130:	02e12623          	sw	a4,44(sp)
    1134:	68079263          	bnez	a5,17b8 <main+0x730>
    1138:	01011783          	lh	a5,16(sp)
    113c:	68078c63          	beqz	a5,17d4 <main+0x74c>
    1140:	00700513          	li	a0,7
    1144:	045000ef          	jal	ra,1988 <get_seed_32>
    1148:	01051513          	slli	a0,a0,0x10
    114c:	41055513          	srai	a0,a0,0x10
    1150:	00051463          	bnez	a0,1158 <main+0xd0>
    1154:	7d000513          	li	a0,2000
    1158:	02a12223          	sw	a0,36(sp)
    115c:	790000ef          	jal	ra,18ec <portable_malloc>
    1160:	02c12783          	lw	a5,44(sp)
    1164:	00050693          	mv	a3,a0
    1168:	00a12a23          	sw	a0,20(sp)
    116c:	0027f713          	andi	a4,a5,2
    1170:	0017f513          	andi	a0,a5,1
    1174:	00e035b3          	snez	a1,a4
    1178:	04011623          	sh	zero,76(sp)
    117c:	0047f613          	andi	a2,a5,4
    1180:	00050893          	mv	a7,a0
    1184:	00b50533          	add	a0,a0,a1
    1188:	00060863          	beqz	a2,1198 <main+0x110>
    118c:	00150513          	addi	a0,a0,1
    1190:	01051513          	slli	a0,a0,0x10
    1194:	01055513          	srli	a0,a0,0x10
    1198:	02412603          	lw	a2,36(sp)
    119c:	00c10813          	addi	a6,sp,12
    11a0:	00000313          	li	t1,0
    11a4:	02a65533          	divu	a0,a2,a0
    11a8:	00100e93          	li	t4,1
    11ac:	00000613          	li	a2,0
    11b0:	00300e13          	li	t3,3
    11b4:	02a12223          	sw	a0,36(sp)
    11b8:	00ce95b3          	sll	a1,t4,a2
    11bc:	00f5f5b3          	and	a1,a1,a5
    11c0:	00160613          	addi	a2,a2,1
    11c4:	5c059c63          	bnez	a1,179c <main+0x714>
    11c8:	00480813          	addi	a6,a6,4
    11cc:	ffc616e3          	bne	a2,t3,11b8 <main+0x130>
    11d0:	24089c63          	bnez	a7,1428 <main+0x3a0>
    11d4:	26071863          	bnez	a4,1444 <main+0x3bc>
    11d8:	0047f793          	andi	a5,a5,4
    11dc:	00078a63          	beqz	a5,11f0 <main+0x168>
    11e0:	02012603          	lw	a2,32(sp)
    11e4:	00c11583          	lh	a1,12(sp)
    11e8:	02412503          	lw	a0,36(sp)
    11ec:	6f4010ef          	jal	ra,28e0 <core_init_state>
    11f0:	02812783          	lw	a5,40(sp)
    11f4:	08079263          	bnez	a5,1278 <main+0x1f0>
    11f8:	000097b7          	lui	a5,0x9
    11fc:	9007a903          	lw	s2,-1792(a5) # 8900 <__clz_tab+0x100>
    1200:	9047a983          	lw	s3,-1788(a5)
    1204:	00100793          	li	a5,1
    1208:	02f12423          	sw	a5,40(sp)
    120c:	02812703          	lw	a4,40(sp)
    1210:	00271793          	slli	a5,a4,0x2
    1214:	00e787b3          	add	a5,a5,a4
    1218:	00179793          	slli	a5,a5,0x1
    121c:	02f12423          	sw	a5,40(sp)
    1220:	6d4000ef          	jal	ra,18f4 <start_time>
    1224:	00c10513          	addi	a0,sp,12
    1228:	dd9ff0ef          	jal	ra,1000 <iterate>
    122c:	6e8000ef          	jal	ra,1914 <stop_time>
    1230:	704000ef          	jal	ra,1934 <get_time>
    1234:	718000ef          	jal	ra,194c <time_in_secs>
    1238:	00090613          	mv	a2,s2
    123c:	00098693          	mv	a3,s3
    1240:	00050493          	mv	s1,a0
    1244:	00058413          	mv	s0,a1
    1248:	6d9030ef          	jal	ra,5120 <__ledf2>
    124c:	fc0540e3          	bltz	a0,120c <main+0x184>
    1250:	00048513          	mv	a0,s1
    1254:	00040593          	mv	a1,s0
    1258:	5e1040ef          	jal	ra,6038 <__fixunsdfsi>
    125c:	58050a63          	beqz	a0,17f0 <main+0x768>
    1260:	00a00793          	li	a5,10
    1264:	02a7d7b3          	divu	a5,a5,a0
    1268:	02812703          	lw	a4,40(sp)
    126c:	00178793          	addi	a5,a5,1
    1270:	02f707b3          	mul	a5,a4,a5
    1274:	02f12423          	sw	a5,40(sp)
    1278:	00008537          	lui	a0,0x8
    127c:	02850513          	addi	a0,a0,40 # 8028 <mem_name+0x28>
    1280:	234020ef          	jal	ra,34b4 <printf>
    1284:	670000ef          	jal	ra,18f4 <start_time>
    1288:	00c10513          	addi	a0,sp,12
    128c:	d75ff0ef          	jal	ra,1000 <iterate>
    1290:	684000ef          	jal	ra,1914 <stop_time>
    1294:	6a0000ef          	jal	ra,1934 <get_time>
    1298:	00050993          	mv	s3,a0
    129c:	00c11503          	lh	a0,12(sp)
    12a0:	00000593          	li	a1,0
    12a4:	7f0000ef          	jal	ra,1a94 <crc16>
    12a8:	00050593          	mv	a1,a0
    12ac:	00e11503          	lh	a0,14(sp)
    12b0:	7e4000ef          	jal	ra,1a94 <crc16>
    12b4:	00050593          	mv	a1,a0
    12b8:	01011503          	lh	a0,16(sp)
    12bc:	7d8000ef          	jal	ra,1a94 <crc16>
    12c0:	00050593          	mv	a1,a0
    12c4:	02411503          	lh	a0,36(sp)
    12c8:	7cc000ef          	jal	ra,1a94 <crc16>
    12cc:	000087b7          	lui	a5,0x8
    12d0:	b0578793          	addi	a5,a5,-1275 # 7b05 <__clzsi2+0x1929>
    12d4:	00050913          	mv	s2,a0
    12d8:	5cf50263          	beq	a0,a5,189c <main+0x814>
    12dc:	1aa7ea63          	bltu	a5,a0,1490 <main+0x408>
    12e0:	000027b7          	lui	a5,0x2
    12e4:	8f278793          	addi	a5,a5,-1806 # 18f2 <portable_free+0x2>
    12e8:	5cf50463          	beq	a0,a5,18b0 <main+0x828>
    12ec:	000057b7          	lui	a5,0x5
    12f0:	eaf78793          	addi	a5,a5,-337 # 4eaf <__divdf3+0x553>
    12f4:	5ef51263          	bne	a0,a5,18d8 <main+0x850>
    12f8:	00008537          	lui	a0,0x8
    12fc:	0ac50513          	addi	a0,a0,172 # 80ac <mem_name+0xac>
    1300:	1b4020ef          	jal	ra,34b4 <printf>
    1304:	00200b13          	li	s6,2
    1308:	00009c37          	lui	s8,0x9
    130c:	928c2783          	lw	a5,-1752(s8) # 8928 <default_num_contexts>
    1310:	00000d93          	li	s11,0
    1314:	00000c93          	li	s9,0
    1318:	1a078263          	beqz	a5,14bc <main+0x434>
    131c:	000087b7          	lui	a5,0x8
    1320:	001b1d13          	slli	s10,s6,0x1
    1324:	4b078793          	addi	a5,a5,1200 # 84b0 <list_known_crc>
    1328:	01a78d33          	add	s10,a5,s10
    132c:	00008bb7          	lui	s7,0x8
    1330:	00008ab7          	lui	s5,0x8
    1334:	00008a37          	lui	s4,0x8
    1338:	0380006f          	j	1370 <main+0x2e8>
    133c:	05010793          	addi	a5,sp,80
    1340:	00878433          	add	s0,a5,s0
    1344:	ffc45783          	lhu	a5,-4(s0)
    1348:	001c8c93          	addi	s9,s9,1
    134c:	928c2703          	lw	a4,-1752(s8)
    1350:	01b787b3          	add	a5,a5,s11
    1354:	010c9c93          	slli	s9,s9,0x10
    1358:	01079413          	slli	s0,a5,0x10
    135c:	01079d93          	slli	s11,a5,0x10
    1360:	010cdc93          	srli	s9,s9,0x10
    1364:	01045413          	srli	s0,s0,0x10
    1368:	410ddd93          	srai	s11,s11,0x10
    136c:	14ecfa63          	bgeu	s9,a4,14c0 <main+0x438>
    1370:	004c9413          	slli	s0,s9,0x4
    1374:	019404b3          	add	s1,s0,s9
    1378:	05010793          	addi	a5,sp,80
    137c:	00249493          	slli	s1,s1,0x2
    1380:	009784b3          	add	s1,a5,s1
    1384:	fdc4a783          	lw	a5,-36(s1)
    1388:	fe049e23          	sh	zero,-4(s1)
    138c:	0017f793          	andi	a5,a5,1
    1390:	02078463          	beqz	a5,13b8 <main+0x330>
    1394:	ff64d603          	lhu	a2,-10(s1)
    1398:	000d5683          	lhu	a3,0(s10)
    139c:	00d60e63          	beq	a2,a3,13b8 <main+0x330>
    13a0:	000c8593          	mv	a1,s9
    13a4:	13cb8513          	addi	a0,s7,316 # 813c <mem_name+0x13c>
    13a8:	10c020ef          	jal	ra,34b4 <printf>
    13ac:	ffc4d783          	lhu	a5,-4(s1)
    13b0:	00178793          	addi	a5,a5,1
    13b4:	fef49e23          	sh	a5,-4(s1)
    13b8:	019404b3          	add	s1,s0,s9
    13bc:	05010793          	addi	a5,sp,80
    13c0:	00249493          	slli	s1,s1,0x2
    13c4:	009784b3          	add	s1,a5,s1
    13c8:	fdc4a783          	lw	a5,-36(s1)
    13cc:	0027f713          	andi	a4,a5,2
    13d0:	02070663          	beqz	a4,13fc <main+0x374>
    13d4:	ff84d603          	lhu	a2,-8(s1)
    13d8:	00cd5683          	lhu	a3,12(s10)
    13dc:	02d60063          	beq	a2,a3,13fc <main+0x374>
    13e0:	000c8593          	mv	a1,s9
    13e4:	16ca8513          	addi	a0,s5,364 # 816c <mem_name+0x16c>
    13e8:	0cc020ef          	jal	ra,34b4 <printf>
    13ec:	ffc4d703          	lhu	a4,-4(s1)
    13f0:	fdc4a783          	lw	a5,-36(s1)
    13f4:	00170713          	addi	a4,a4,1
    13f8:	fee49e23          	sh	a4,-4(s1)
    13fc:	01940433          	add	s0,s0,s9
    1400:	0047f793          	andi	a5,a5,4
    1404:	00241413          	slli	s0,s0,0x2
    1408:	f2078ae3          	beqz	a5,133c <main+0x2b4>
    140c:	05010793          	addi	a5,sp,80
    1410:	00878433          	add	s0,a5,s0
    1414:	ffa45603          	lhu	a2,-6(s0)
    1418:	018d5683          	lhu	a3,24(s10)
    141c:	04d61863          	bne	a2,a3,146c <main+0x3e4>
    1420:	ffc45783          	lhu	a5,-4(s0)
    1424:	f25ff06f          	j	1348 <main+0x2c0>
    1428:	00c11603          	lh	a2,12(sp)
    142c:	01812583          	lw	a1,24(sp)
    1430:	511000ef          	jal	ra,2140 <core_list_init>
    1434:	02c12783          	lw	a5,44(sp)
    1438:	02a12823          	sw	a0,48(sp)
    143c:	0027f713          	andi	a4,a5,2
    1440:	d8070ce3          	beqz	a4,11d8 <main+0x150>
    1444:	00e11783          	lh	a5,14(sp)
    1448:	00c11603          	lh	a2,12(sp)
    144c:	01c12583          	lw	a1,28(sp)
    1450:	02412503          	lw	a0,36(sp)
    1454:	01079793          	slli	a5,a5,0x10
    1458:	00c7e633          	or	a2,a5,a2
    145c:	03410693          	addi	a3,sp,52
    1460:	695000ef          	jal	ra,22f4 <core_init_matrix>
    1464:	02c12783          	lw	a5,44(sp)
    1468:	d71ff06f          	j	11d8 <main+0x150>
    146c:	000c8593          	mv	a1,s9
    1470:	1a0a0513          	addi	a0,s4,416 # 81a0 <mem_name+0x1a0>
    1474:	040020ef          	jal	ra,34b4 <printf>
    1478:	ffc45783          	lhu	a5,-4(s0)
    147c:	00178793          	addi	a5,a5,1
    1480:	01079793          	slli	a5,a5,0x10
    1484:	0107d793          	srli	a5,a5,0x10
    1488:	fef41e23          	sh	a5,-4(s0)
    148c:	ebdff06f          	j	1348 <main+0x2c0>
    1490:	000097b7          	lui	a5,0x9
    1494:	a0278793          	addi	a5,a5,-1534 # 8a02 <_stdin+0x8a>
    1498:	42f50663          	beq	a0,a5,18c4 <main+0x83c>
    149c:	0000f7b7          	lui	a5,0xf
    14a0:	9f578793          	addi	a5,a5,-1547 # e9f5 <__heap_start+0x2075>
    14a4:	42f51a63          	bne	a0,a5,18d8 <main+0x850>
    14a8:	00008537          	lui	a0,0x8
    14ac:	0e050513          	addi	a0,a0,224 # 80e0 <mem_name+0xe0>
    14b0:	004020ef          	jal	ra,34b4 <printf>
    14b4:	00300b13          	li	s6,3
    14b8:	e51ff06f          	j	1308 <main+0x280>
    14bc:	00000413          	li	s0,0
    14c0:	5e0000ef          	jal	ra,1aa0 <check_data_types>
    14c4:	02412583          	lw	a1,36(sp)
    14c8:	00a40433          	add	s0,s0,a0
    14cc:	00008537          	lui	a0,0x8
    14d0:	1d050513          	addi	a0,a0,464 # 81d0 <mem_name+0x1d0>
    14d4:	7e1010ef          	jal	ra,34b4 <printf>
    14d8:	00008537          	lui	a0,0x8
    14dc:	00098593          	mv	a1,s3
    14e0:	1e850513          	addi	a0,a0,488 # 81e8 <mem_name+0x1e8>
    14e4:	7d1010ef          	jal	ra,34b4 <printf>
    14e8:	00098513          	mv	a0,s3
    14ec:	460000ef          	jal	ra,194c <time_in_secs>
    14f0:	00050613          	mv	a2,a0
    14f4:	00008537          	lui	a0,0x8
    14f8:	00058693          	mv	a3,a1
    14fc:	20050513          	addi	a0,a0,512 # 8200 <mem_name+0x200>
    1500:	7b5010ef          	jal	ra,34b4 <printf>
    1504:	00098513          	mv	a0,s3
    1508:	444000ef          	jal	ra,194c <time_in_secs>
    150c:	01041413          	slli	s0,s0,0x10
    1510:	00000613          	li	a2,0
    1514:	00000693          	li	a3,0
    1518:	01045413          	srli	s0,s0,0x10
    151c:	321030ef          	jal	ra,503c <__gedf2>
    1520:	04a05663          	blez	a0,156c <main+0x4e4>
    1524:	928c2783          	lw	a5,-1752(s8)
    1528:	02812503          	lw	a0,40(sp)
    152c:	02f50533          	mul	a0,a0,a5
    1530:	42d040ef          	jal	ra,615c <__floatunsidf>
    1534:	00050a13          	mv	s4,a0
    1538:	00098513          	mv	a0,s3
    153c:	00058493          	mv	s1,a1
    1540:	40c000ef          	jal	ra,194c <time_in_secs>
    1544:	00050613          	mv	a2,a0
    1548:	00058693          	mv	a3,a1
    154c:	000a0513          	mv	a0,s4
    1550:	00048593          	mv	a1,s1
    1554:	408030ef          	jal	ra,495c <__divdf3>
    1558:	00050613          	mv	a2,a0
    155c:	00008537          	lui	a0,0x8
    1560:	00058693          	mv	a3,a1
    1564:	21850513          	addi	a0,a0,536 # 8218 <mem_name+0x218>
    1568:	74d010ef          	jal	ra,34b4 <printf>
    156c:	00098513          	mv	a0,s3
    1570:	3dc000ef          	jal	ra,194c <time_in_secs>
    1574:	000097b7          	lui	a5,0x9
    1578:	9087a603          	lw	a2,-1784(a5) # 8908 <__clz_tab+0x108>
    157c:	90c7a683          	lw	a3,-1780(a5)
    1580:	3a1030ef          	jal	ra,5120 <__ledf2>
    1584:	2e054c63          	bltz	a0,187c <main+0x7f4>
    1588:	928c2783          	lw	a5,-1752(s8)
    158c:	02812583          	lw	a1,40(sp)
    1590:	00008537          	lui	a0,0x8
    1594:	27050513          	addi	a0,a0,624 # 8270 <mem_name+0x270>
    1598:	02f585b3          	mul	a1,a1,a5
    159c:	00008a37          	lui	s4,0x8
    15a0:	00008ab7          	lui	s5,0x8
    15a4:	00008bb7          	lui	s7,0x8
    15a8:	01041493          	slli	s1,s0,0x10
    15ac:	4104d493          	srai	s1,s1,0x10
    15b0:	705010ef          	jal	ra,34b4 <printf>
    15b4:	00008537          	lui	a0,0x8
    15b8:	288a0593          	addi	a1,s4,648 # 8288 <mem_name+0x288>
    15bc:	29450513          	addi	a0,a0,660 # 8294 <mem_name+0x294>
    15c0:	6f5010ef          	jal	ra,34b4 <printf>
    15c4:	00008537          	lui	a0,0x8
    15c8:	2aca8593          	addi	a1,s5,684 # 82ac <mem_name+0x2ac>
    15cc:	2ec50513          	addi	a0,a0,748 # 82ec <mem_name+0x2ec>
    15d0:	6e5010ef          	jal	ra,34b4 <printf>
    15d4:	00008537          	lui	a0,0x8
    15d8:	304b8593          	addi	a1,s7,772 # 8304 <mem_name+0x304>
    15dc:	30c50513          	addi	a0,a0,780 # 830c <mem_name+0x30c>
    15e0:	6d5010ef          	jal	ra,34b4 <printf>
    15e4:	00008537          	lui	a0,0x8
    15e8:	00090593          	mv	a1,s2
    15ec:	32450513          	addi	a0,a0,804 # 8324 <mem_name+0x324>
    15f0:	6c5010ef          	jal	ra,34b4 <printf>
    15f4:	02c12783          	lw	a5,44(sp)
    15f8:	0017f713          	andi	a4,a5,1
    15fc:	04070863          	beqz	a4,164c <main+0x5c4>
    1600:	928c2703          	lw	a4,-1752(s8)
    1604:	04070463          	beqz	a4,164c <main+0x5c4>
    1608:	00000413          	li	s0,0
    160c:	00008937          	lui	s2,0x8
    1610:	00441793          	slli	a5,s0,0x4
    1614:	008787b3          	add	a5,a5,s0
    1618:	05010713          	addi	a4,sp,80
    161c:	00279793          	slli	a5,a5,0x2
    1620:	00f707b3          	add	a5,a4,a5
    1624:	ff67d603          	lhu	a2,-10(a5)
    1628:	00040593          	mv	a1,s0
    162c:	34090513          	addi	a0,s2,832 # 8340 <mem_name+0x340>
    1630:	685010ef          	jal	ra,34b4 <printf>
    1634:	00140413          	addi	s0,s0,1
    1638:	928c2783          	lw	a5,-1752(s8)
    163c:	01041413          	slli	s0,s0,0x10
    1640:	01045413          	srli	s0,s0,0x10
    1644:	fcf466e3          	bltu	s0,a5,1610 <main+0x588>
    1648:	02c12783          	lw	a5,44(sp)
    164c:	0027f713          	andi	a4,a5,2
    1650:	04070863          	beqz	a4,16a0 <main+0x618>
    1654:	928c2703          	lw	a4,-1752(s8)
    1658:	22070c63          	beqz	a4,1890 <main+0x808>
    165c:	00000413          	li	s0,0
    1660:	00008937          	lui	s2,0x8
    1664:	00441793          	slli	a5,s0,0x4
    1668:	008787b3          	add	a5,a5,s0
    166c:	05010713          	addi	a4,sp,80
    1670:	00279793          	slli	a5,a5,0x2
    1674:	00f707b3          	add	a5,a4,a5
    1678:	ff87d603          	lhu	a2,-8(a5)
    167c:	00040593          	mv	a1,s0
    1680:	35c90513          	addi	a0,s2,860 # 835c <mem_name+0x35c>
    1684:	631010ef          	jal	ra,34b4 <printf>
    1688:	00140413          	addi	s0,s0,1
    168c:	928c2783          	lw	a5,-1752(s8)
    1690:	01041413          	slli	s0,s0,0x10
    1694:	01045413          	srli	s0,s0,0x10
    1698:	fcf466e3          	bltu	s0,a5,1664 <main+0x5dc>
    169c:	02c12783          	lw	a5,44(sp)
    16a0:	0047f793          	andi	a5,a5,4
    16a4:	04078663          	beqz	a5,16f0 <main+0x668>
    16a8:	928c2783          	lw	a5,-1752(s8)
    16ac:	08078663          	beqz	a5,1738 <main+0x6b0>
    16b0:	00000413          	li	s0,0
    16b4:	00008937          	lui	s2,0x8
    16b8:	00441793          	slli	a5,s0,0x4
    16bc:	008787b3          	add	a5,a5,s0
    16c0:	05010713          	addi	a4,sp,80
    16c4:	00279793          	slli	a5,a5,0x2
    16c8:	00f707b3          	add	a5,a4,a5
    16cc:	ffa7d603          	lhu	a2,-6(a5)
    16d0:	00040593          	mv	a1,s0
    16d4:	37890513          	addi	a0,s2,888 # 8378 <mem_name+0x378>
    16d8:	5dd010ef          	jal	ra,34b4 <printf>
    16dc:	00140413          	addi	s0,s0,1
    16e0:	928c2783          	lw	a5,-1752(s8)
    16e4:	01041413          	slli	s0,s0,0x10
    16e8:	01045413          	srli	s0,s0,0x10
    16ec:	fcf466e3          	bltu	s0,a5,16b8 <main+0x630>
    16f0:	928c2783          	lw	a5,-1752(s8)
    16f4:	00000413          	li	s0,0
    16f8:	00008937          	lui	s2,0x8
    16fc:	02078e63          	beqz	a5,1738 <main+0x6b0>
    1700:	00441793          	slli	a5,s0,0x4
    1704:	008787b3          	add	a5,a5,s0
    1708:	05010713          	addi	a4,sp,80
    170c:	00279793          	slli	a5,a5,0x2
    1710:	00f707b3          	add	a5,a4,a5
    1714:	ff47d603          	lhu	a2,-12(a5)
    1718:	00040593          	mv	a1,s0
    171c:	39490513          	addi	a0,s2,916 # 8394 <mem_name+0x394>
    1720:	595010ef          	jal	ra,34b4 <printf>
    1724:	00140413          	addi	s0,s0,1
    1728:	928c2783          	lw	a5,-1752(s8)
    172c:	01041413          	slli	s0,s0,0x10
    1730:	01045413          	srli	s0,s0,0x10
    1734:	fcf466e3          	bltu	s0,a5,1700 <main+0x678>
    1738:	0c048063          	beqz	s1,17f8 <main+0x770>
    173c:	0a905263          	blez	s1,17e0 <main+0x758>
    1740:	00008537          	lui	a0,0x8
    1744:	42050513          	addi	a0,a0,1056 # 8420 <mem_name+0x420>
    1748:	56d010ef          	jal	ra,34b4 <printf>
    174c:	01412503          	lw	a0,20(sp)
    1750:	1a0000ef          	jal	ra,18f0 <portable_free>
    1754:	04e10513          	addi	a0,sp,78
    1758:	228000ef          	jal	ra,1980 <portable_fini>
    175c:	08c12083          	lw	ra,140(sp)
    1760:	08812403          	lw	s0,136(sp)
    1764:	08412483          	lw	s1,132(sp)
    1768:	08012903          	lw	s2,128(sp)
    176c:	07c12983          	lw	s3,124(sp)
    1770:	07812a03          	lw	s4,120(sp)
    1774:	07412a83          	lw	s5,116(sp)
    1778:	07012b03          	lw	s6,112(sp)
    177c:	06c12b83          	lw	s7,108(sp)
    1780:	06812c03          	lw	s8,104(sp)
    1784:	06412c83          	lw	s9,100(sp)
    1788:	06012d03          	lw	s10,96(sp)
    178c:	05c12d83          	lw	s11,92(sp)
    1790:	00000513          	li	a0,0
    1794:	09010113          	addi	sp,sp,144
    1798:	00008067          	ret
    179c:	02a305b3          	mul	a1,t1,a0
    17a0:	00130313          	addi	t1,t1,1
    17a4:	01031313          	slli	t1,t1,0x10
    17a8:	01035313          	srli	t1,t1,0x10
    17ac:	00b685b3          	add	a1,a3,a1
    17b0:	00b82623          	sw	a1,12(a6)
    17b4:	a15ff06f          	j	11c8 <main+0x140>
    17b8:	00100713          	li	a4,1
    17bc:	98e792e3          	bne	a5,a4,1140 <main+0xb8>
    17c0:	01011783          	lh	a5,16(sp)
    17c4:	96079ee3          	bnez	a5,1140 <main+0xb8>
    17c8:	341537b7          	lui	a5,0x34153
    17cc:	41578793          	addi	a5,a5,1045 # 34153415 <__heap_start+0x34146a95>
    17d0:	00f12623          	sw	a5,12(sp)
    17d4:	06600793          	li	a5,102
    17d8:	00f11823          	sh	a5,16(sp)
    17dc:	965ff06f          	j	1140 <main+0xb8>
    17e0:	00008537          	lui	a0,0x8
    17e4:	43450513          	addi	a0,a0,1076 # 8434 <mem_name+0x434>
    17e8:	4cd010ef          	jal	ra,34b4 <printf>
    17ec:	f61ff06f          	j	174c <main+0x6c4>
    17f0:	00100513          	li	a0,1
    17f4:	a6dff06f          	j	1260 <main+0x1d8>
    17f8:	00008537          	lui	a0,0x8
    17fc:	3b050513          	addi	a0,a0,944 # 83b0 <mem_name+0x3b0>
    1800:	4b5010ef          	jal	ra,34b4 <printf>
    1804:	00300793          	li	a5,3
    1808:	f4fb12e3          	bne	s6,a5,174c <main+0x6c4>
    180c:	928c2783          	lw	a5,-1752(s8)
    1810:	02812503          	lw	a0,40(sp)
    1814:	02f50533          	mul	a0,a0,a5
    1818:	145040ef          	jal	ra,615c <__floatunsidf>
    181c:	00050493          	mv	s1,a0
    1820:	00098513          	mv	a0,s3
    1824:	00058413          	mv	s0,a1
    1828:	124000ef          	jal	ra,194c <time_in_secs>
    182c:	00050613          	mv	a2,a0
    1830:	00058693          	mv	a3,a1
    1834:	00048513          	mv	a0,s1
    1838:	00040593          	mv	a1,s0
    183c:	120030ef          	jal	ra,495c <__divdf3>
    1840:	00050613          	mv	a2,a0
    1844:	00008537          	lui	a0,0x8
    1848:	00058693          	mv	a3,a1
    184c:	2aca8793          	addi	a5,s5,684
    1850:	288a0713          	addi	a4,s4,648
    1854:	3fc50513          	addi	a0,a0,1020 # 83fc <mem_name+0x3fc>
    1858:	45d010ef          	jal	ra,34b4 <printf>
    185c:	00008537          	lui	a0,0x8
    1860:	304b8593          	addi	a1,s7,772
    1864:	41850513          	addi	a0,a0,1048 # 8418 <mem_name+0x418>
    1868:	44d010ef          	jal	ra,34b4 <printf>
    186c:	00008537          	lui	a0,0x8
    1870:	26c50513          	addi	a0,a0,620 # 826c <mem_name+0x26c>
    1874:	441010ef          	jal	ra,34b4 <printf>
    1878:	ed5ff06f          	j	174c <main+0x6c4>
    187c:	00008537          	lui	a0,0x8
    1880:	23050513          	addi	a0,a0,560 # 8230 <mem_name+0x230>
    1884:	431010ef          	jal	ra,34b4 <printf>
    1888:	00140413          	addi	s0,s0,1
    188c:	cfdff06f          	j	1588 <main+0x500>
    1890:	0047f793          	andi	a5,a5,4
    1894:	e4078ee3          	beqz	a5,16f0 <main+0x668>
    1898:	ea1ff06f          	j	1738 <main+0x6b0>
    189c:	00008537          	lui	a0,0x8
    18a0:	08050513          	addi	a0,a0,128 # 8080 <mem_name+0x80>
    18a4:	411010ef          	jal	ra,34b4 <printf>
    18a8:	00100b13          	li	s6,1
    18ac:	a5dff06f          	j	1308 <main+0x280>
    18b0:	00008537          	lui	a0,0x8
    18b4:	11050513          	addi	a0,a0,272 # 8110 <mem_name+0x110>
    18b8:	3fd010ef          	jal	ra,34b4 <printf>
    18bc:	00400b13          	li	s6,4
    18c0:	a49ff06f          	j	1308 <main+0x280>
    18c4:	00008537          	lui	a0,0x8
    18c8:	05050513          	addi	a0,a0,80 # 8050 <mem_name+0x50>
    18cc:	3e9010ef          	jal	ra,34b4 <printf>
    18d0:	00000b13          	li	s6,0
    18d4:	a35ff06f          	j	1308 <main+0x280>
    18d8:	00010437          	lui	s0,0x10
    18dc:	fff40413          	addi	s0,s0,-1 # ffff <__heap_start+0x367f>
    18e0:	fff00b13          	li	s6,-1
    18e4:	00009c37          	lui	s8,0x9
    18e8:	bd9ff06f          	j	14c0 <main+0x438>

000018ec <portable_malloc>:
    18ec:	6990106f          	j	3784 <malloc>

000018f0 <portable_free>:
    18f0:	7c50106f          	j	38b4 <free>

000018f4 <start_time>:
    18f4:	ff010113          	addi	sp,sp,-16
    18f8:	00112623          	sw	ra,12(sp)
    18fc:	36c020ef          	jal	ra,3c68 <clock>
    1900:	00c12083          	lw	ra,12(sp)
    1904:	000097b7          	lui	a5,0x9
    1908:	96a7a023          	sw	a0,-1696(a5) # 8960 <start_time_val>
    190c:	01010113          	addi	sp,sp,16
    1910:	00008067          	ret

00001914 <stop_time>:
    1914:	ff010113          	addi	sp,sp,-16
    1918:	00112623          	sw	ra,12(sp)
    191c:	34c020ef          	jal	ra,3c68 <clock>
    1920:	00c12083          	lw	ra,12(sp)
    1924:	000097b7          	lui	a5,0x9
    1928:	94a7ae23          	sw	a0,-1700(a5) # 895c <stop_time_val>
    192c:	01010113          	addi	sp,sp,16
    1930:	00008067          	ret

00001934 <get_time>:
    1934:	000097b7          	lui	a5,0x9
    1938:	95c7a503          	lw	a0,-1700(a5) # 895c <stop_time_val>
    193c:	000097b7          	lui	a5,0x9
    1940:	9607a783          	lw	a5,-1696(a5) # 8960 <start_time_val>
    1944:	40f50533          	sub	a0,a0,a5
    1948:	00008067          	ret

0000194c <time_in_secs>:
    194c:	ff010113          	addi	sp,sp,-16
    1950:	00112623          	sw	ra,12(sp)
    1954:	009040ef          	jal	ra,615c <__floatunsidf>
    1958:	000097b7          	lui	a5,0x9
    195c:	9107a603          	lw	a2,-1776(a5) # 8910 <__clz_tab+0x110>
    1960:	9147a683          	lw	a3,-1772(a5)
    1964:	7f9020ef          	jal	ra,495c <__divdf3>
    1968:	00c12083          	lw	ra,12(sp)
    196c:	01010113          	addi	sp,sp,16
    1970:	00008067          	ret

00001974 <portable_init>:
    1974:	00100793          	li	a5,1
    1978:	00f50023          	sb	a5,0(a0)
    197c:	00008067          	ret

00001980 <portable_fini>:
    1980:	00050023          	sb	zero,0(a0)
    1984:	00008067          	ret

00001988 <get_seed_32>:
    1988:	00500793          	li	a5,5
    198c:	04a7ec63          	bltu	a5,a0,19e4 <get_seed_32+0x5c>
    1990:	000087b7          	lui	a5,0x8
    1994:	4d478793          	addi	a5,a5,1236 # 84d4 <state_known_crc+0xc>
    1998:	00251513          	slli	a0,a0,0x2
    199c:	00f50533          	add	a0,a0,a5
    19a0:	00052783          	lw	a5,0(a0)
    19a4:	00078067          	jr	a5
    19a8:	000097b7          	lui	a5,0x9
    19ac:	9647a503          	lw	a0,-1692(a5) # 8964 <seed5_volatile>
    19b0:	00008067          	ret
    19b4:	000097b7          	lui	a5,0x9
    19b8:	9707a503          	lw	a0,-1680(a5) # 8970 <seed1_volatile>
    19bc:	00008067          	ret
    19c0:	000097b7          	lui	a5,0x9
    19c4:	96c7a503          	lw	a0,-1684(a5) # 896c <seed2_volatile>
    19c8:	00008067          	ret
    19cc:	000097b7          	lui	a5,0x9
    19d0:	92c7a503          	lw	a0,-1748(a5) # 892c <seed3_volatile>
    19d4:	00008067          	ret
    19d8:	000097b7          	lui	a5,0x9
    19dc:	9687a503          	lw	a0,-1688(a5) # 8968 <seed4_volatile>
    19e0:	00008067          	ret
    19e4:	00000513          	li	a0,0
    19e8:	00008067          	ret

000019ec <crcu8>:
    19ec:	00050693          	mv	a3,a0
    19f0:	00058513          	mv	a0,a1
    19f4:	ffffa5b7          	lui	a1,0xffffa
    19f8:	00800793          	li	a5,8
    19fc:	00158593          	addi	a1,a1,1 # ffffa001 <__heap_start+0xfffed681>
    1a00:	00d54733          	xor	a4,a0,a3
    1a04:	fff78793          	addi	a5,a5,-1
    1a08:	00155513          	srli	a0,a0,0x1
    1a0c:	00177713          	andi	a4,a4,1
    1a10:	0ff7f793          	zext.b	a5,a5
    1a14:	00b54633          	xor	a2,a0,a1
    1a18:	0016d693          	srli	a3,a3,0x1
    1a1c:	00070663          	beqz	a4,1a28 <crcu8+0x3c>
    1a20:	01061513          	slli	a0,a2,0x10
    1a24:	01055513          	srli	a0,a0,0x10
    1a28:	fc079ce3          	bnez	a5,1a00 <crcu8+0x14>
    1a2c:	00008067          	ret

00001a30 <crcu16>:
    1a30:	ff010113          	addi	sp,sp,-16
    1a34:	00812423          	sw	s0,8(sp)
    1a38:	00050413          	mv	s0,a0
    1a3c:	0ff57513          	zext.b	a0,a0
    1a40:	00112623          	sw	ra,12(sp)
    1a44:	fa9ff0ef          	jal	ra,19ec <crcu8>
    1a48:	00050593          	mv	a1,a0
    1a4c:	00845513          	srli	a0,s0,0x8
    1a50:	00812403          	lw	s0,8(sp)
    1a54:	00c12083          	lw	ra,12(sp)
    1a58:	01010113          	addi	sp,sp,16
    1a5c:	f91ff06f          	j	19ec <crcu8>

00001a60 <crcu32>:
    1a60:	ff010113          	addi	sp,sp,-16
    1a64:	00812423          	sw	s0,8(sp)
    1a68:	00050413          	mv	s0,a0
    1a6c:	01051513          	slli	a0,a0,0x10
    1a70:	01055513          	srli	a0,a0,0x10
    1a74:	00112623          	sw	ra,12(sp)
    1a78:	fb9ff0ef          	jal	ra,1a30 <crcu16>
    1a7c:	00050593          	mv	a1,a0
    1a80:	01045513          	srli	a0,s0,0x10
    1a84:	00812403          	lw	s0,8(sp)
    1a88:	00c12083          	lw	ra,12(sp)
    1a8c:	01010113          	addi	sp,sp,16
    1a90:	fa1ff06f          	j	1a30 <crcu16>

00001a94 <crc16>:
    1a94:	01051513          	slli	a0,a0,0x10
    1a98:	01055513          	srli	a0,a0,0x10
    1a9c:	f95ff06f          	j	1a30 <crcu16>

00001aa0 <check_data_types>:
    1aa0:	00000513          	li	a0,0
    1aa4:	00008067          	ret

00001aa8 <cmp_idx>:
    1aa8:	00060a63          	beqz	a2,1abc <cmp_idx+0x14>
    1aac:	00251503          	lh	a0,2(a0)
    1ab0:	00259783          	lh	a5,2(a1)
    1ab4:	40f50533          	sub	a0,a0,a5
    1ab8:	00008067          	ret
    1abc:	00051783          	lh	a5,0(a0)
    1ac0:	01079713          	slli	a4,a5,0x10
    1ac4:	01075713          	srli	a4,a4,0x10
    1ac8:	00875713          	srli	a4,a4,0x8
    1acc:	f007f793          	andi	a5,a5,-256
    1ad0:	00e7e7b3          	or	a5,a5,a4
    1ad4:	00f51023          	sh	a5,0(a0)
    1ad8:	00059783          	lh	a5,0(a1)
    1adc:	00251503          	lh	a0,2(a0)
    1ae0:	01079713          	slli	a4,a5,0x10
    1ae4:	01075713          	srli	a4,a4,0x10
    1ae8:	00875713          	srli	a4,a4,0x8
    1aec:	f007f793          	andi	a5,a5,-256
    1af0:	00e7e7b3          	or	a5,a5,a4
    1af4:	00f59023          	sh	a5,0(a1)
    1af8:	00259783          	lh	a5,2(a1)
    1afc:	40f50533          	sub	a0,a0,a5
    1b00:	00008067          	ret

00001b04 <calc_func>:
    1b04:	fe010113          	addi	sp,sp,-32
    1b08:	00812c23          	sw	s0,24(sp)
    1b0c:	00051403          	lh	s0,0(a0)
    1b10:	00112e23          	sw	ra,28(sp)
    1b14:	00912a23          	sw	s1,20(sp)
    1b18:	40745793          	srai	a5,s0,0x7
    1b1c:	01212823          	sw	s2,16(sp)
    1b20:	01312623          	sw	s3,12(sp)
    1b24:	0017f793          	andi	a5,a5,1
    1b28:	02078263          	beqz	a5,1b4c <calc_func+0x48>
    1b2c:	01c12083          	lw	ra,28(sp)
    1b30:	07f47513          	andi	a0,s0,127
    1b34:	01812403          	lw	s0,24(sp)
    1b38:	01412483          	lw	s1,20(sp)
    1b3c:	01012903          	lw	s2,16(sp)
    1b40:	00c12983          	lw	s3,12(sp)
    1b44:	02010113          	addi	sp,sp,32
    1b48:	00008067          	ret
    1b4c:	00058493          	mv	s1,a1
    1b50:	40345593          	srai	a1,s0,0x3
    1b54:	00f5f593          	andi	a1,a1,15
    1b58:	00459713          	slli	a4,a1,0x4
    1b5c:	00747693          	andi	a3,s0,7
    1b60:	0384d783          	lhu	a5,56(s1)
    1b64:	00050993          	mv	s3,a0
    1b68:	00b765b3          	or	a1,a4,a1
    1b6c:	04068c63          	beqz	a3,1bc4 <calc_func+0xc0>
    1b70:	00100713          	li	a4,1
    1b74:	08e68a63          	beq	a3,a4,1c08 <calc_func+0x104>
    1b78:	01041513          	slli	a0,s0,0x10
    1b7c:	01055513          	srli	a0,a0,0x10
    1b80:	00040913          	mv	s2,s0
    1b84:	00078593          	mv	a1,a5
    1b88:	ea9ff0ef          	jal	ra,1a30 <crcu16>
    1b8c:	00050793          	mv	a5,a0
    1b90:	f0047413          	andi	s0,s0,-256
    1b94:	07f97513          	andi	a0,s2,127
    1b98:	00856433          	or	s0,a0,s0
    1b9c:	02f49c23          	sh	a5,56(s1)
    1ba0:	08046413          	ori	s0,s0,128
    1ba4:	00899023          	sh	s0,0(s3)
    1ba8:	01c12083          	lw	ra,28(sp)
    1bac:	01812403          	lw	s0,24(sp)
    1bb0:	01412483          	lw	s1,20(sp)
    1bb4:	01012903          	lw	s2,16(sp)
    1bb8:	00c12983          	lw	s3,12(sp)
    1bbc:	02010113          	addi	sp,sp,32
    1bc0:	00008067          	ret
    1bc4:	02200693          	li	a3,34
    1bc8:	00058713          	mv	a4,a1
    1bcc:	00d5d463          	bge	a1,a3,1bd4 <calc_func+0xd0>
    1bd0:	02200713          	li	a4,34
    1bd4:	00249683          	lh	a3,2(s1)
    1bd8:	00049603          	lh	a2,0(s1)
    1bdc:	0144a583          	lw	a1,20(s1)
    1be0:	0184a503          	lw	a0,24(s1)
    1be4:	0ff77713          	zext.b	a4,a4
    1be8:	15c010ef          	jal	ra,2d44 <core_bench_state>
    1bec:	03e4d783          	lhu	a5,62(s1)
    1bf0:	01051913          	slli	s2,a0,0x10
    1bf4:	41095913          	srai	s2,s2,0x10
    1bf8:	02079c63          	bnez	a5,1c30 <calc_func+0x12c>
    1bfc:	0384d783          	lhu	a5,56(s1)
    1c00:	02a49f23          	sh	a0,62(s1)
    1c04:	f81ff06f          	j	1b84 <calc_func+0x80>
    1c08:	00078613          	mv	a2,a5
    1c0c:	02848513          	addi	a0,s1,40
    1c10:	495000ef          	jal	ra,28a4 <core_bench_matrix>
    1c14:	03c4d783          	lhu	a5,60(s1)
    1c18:	01051913          	slli	s2,a0,0x10
    1c1c:	41095913          	srai	s2,s2,0x10
    1c20:	00079863          	bnez	a5,1c30 <calc_func+0x12c>
    1c24:	0384d783          	lhu	a5,56(s1)
    1c28:	02a49e23          	sh	a0,60(s1)
    1c2c:	f59ff06f          	j	1b84 <calc_func+0x80>
    1c30:	0384d783          	lhu	a5,56(s1)
    1c34:	f51ff06f          	j	1b84 <calc_func+0x80>

00001c38 <cmp_complex>:
    1c38:	ff010113          	addi	sp,sp,-16
    1c3c:	00912223          	sw	s1,4(sp)
    1c40:	00058493          	mv	s1,a1
    1c44:	00060593          	mv	a1,a2
    1c48:	00112623          	sw	ra,12(sp)
    1c4c:	00812423          	sw	s0,8(sp)
    1c50:	00060413          	mv	s0,a2
    1c54:	eb1ff0ef          	jal	ra,1b04 <calc_func>
    1c58:	00050793          	mv	a5,a0
    1c5c:	00040593          	mv	a1,s0
    1c60:	00048513          	mv	a0,s1
    1c64:	00078413          	mv	s0,a5
    1c68:	e9dff0ef          	jal	ra,1b04 <calc_func>
    1c6c:	00c12083          	lw	ra,12(sp)
    1c70:	40a40533          	sub	a0,s0,a0
    1c74:	00812403          	lw	s0,8(sp)
    1c78:	00412483          	lw	s1,4(sp)
    1c7c:	01010113          	addi	sp,sp,16
    1c80:	00008067          	ret

00001c84 <copy_info>:
    1c84:	00059703          	lh	a4,0(a1)
    1c88:	00259783          	lh	a5,2(a1)
    1c8c:	00e51023          	sh	a4,0(a0)
    1c90:	00f51123          	sh	a5,2(a0)
    1c94:	00008067          	ret

00001c98 <core_list_insert_new>:
    1c98:	00062803          	lw	a6,0(a2)
    1c9c:	00880893          	addi	a7,a6,8
    1ca0:	04e8f663          	bgeu	a7,a4,1cec <core_list_insert_new+0x54>
    1ca4:	0006a703          	lw	a4,0(a3)
    1ca8:	00470313          	addi	t1,a4,4
    1cac:	04f37063          	bgeu	t1,a5,1cec <core_list_insert_new+0x54>
    1cb0:	01162023          	sw	a7,0(a2)
    1cb4:	00052783          	lw	a5,0(a0)
    1cb8:	00059883          	lh	a7,0(a1)
    1cbc:	00259603          	lh	a2,2(a1)
    1cc0:	00f82023          	sw	a5,0(a6)
    1cc4:	01052023          	sw	a6,0(a0)
    1cc8:	00e82223          	sw	a4,4(a6)
    1ccc:	0006a783          	lw	a5,0(a3)
    1cd0:	00080513          	mv	a0,a6
    1cd4:	00478793          	addi	a5,a5,4
    1cd8:	00f6a023          	sw	a5,0(a3)
    1cdc:	00482783          	lw	a5,4(a6)
    1ce0:	01179023          	sh	a7,0(a5)
    1ce4:	00c79123          	sh	a2,2(a5)
    1ce8:	00008067          	ret
    1cec:	00000813          	li	a6,0
    1cf0:	00080513          	mv	a0,a6
    1cf4:	00008067          	ret

00001cf8 <core_list_remove>:
    1cf8:	00050793          	mv	a5,a0
    1cfc:	00052503          	lw	a0,0(a0)
    1d00:	0047a683          	lw	a3,4(a5)
    1d04:	00452603          	lw	a2,4(a0)
    1d08:	00052703          	lw	a4,0(a0)
    1d0c:	00c7a223          	sw	a2,4(a5)
    1d10:	00d52223          	sw	a3,4(a0)
    1d14:	00e7a023          	sw	a4,0(a5)
    1d18:	00052023          	sw	zero,0(a0)
    1d1c:	00008067          	ret

00001d20 <core_list_undo_remove>:
    1d20:	0045a603          	lw	a2,4(a1)
    1d24:	00452683          	lw	a3,4(a0)
    1d28:	0005a703          	lw	a4,0(a1)
    1d2c:	00c52223          	sw	a2,4(a0)
    1d30:	00d5a223          	sw	a3,4(a1)
    1d34:	00e52023          	sw	a4,0(a0)
    1d38:	00a5a023          	sw	a0,0(a1)
    1d3c:	00008067          	ret

00001d40 <core_list_find>:
    1d40:	00259703          	lh	a4,2(a1)
    1d44:	02074263          	bltz	a4,1d68 <core_list_find+0x28>
    1d48:	00051863          	bnez	a0,1d58 <core_list_find+0x18>
    1d4c:	0480006f          	j	1d94 <core_list_find+0x54>
    1d50:	00052503          	lw	a0,0(a0)
    1d54:	02050c63          	beqz	a0,1d8c <core_list_find+0x4c>
    1d58:	00452783          	lw	a5,4(a0)
    1d5c:	00279783          	lh	a5,2(a5)
    1d60:	fee798e3          	bne	a5,a4,1d50 <core_list_find+0x10>
    1d64:	00008067          	ret
    1d68:	02050263          	beqz	a0,1d8c <core_list_find+0x4c>
    1d6c:	00059703          	lh	a4,0(a1)
    1d70:	00c0006f          	j	1d7c <core_list_find+0x3c>
    1d74:	00052503          	lw	a0,0(a0)
    1d78:	00050c63          	beqz	a0,1d90 <core_list_find+0x50>
    1d7c:	00452783          	lw	a5,4(a0)
    1d80:	0007c783          	lbu	a5,0(a5)
    1d84:	fee798e3          	bne	a5,a4,1d74 <core_list_find+0x34>
    1d88:	00008067          	ret
    1d8c:	00000513          	li	a0,0
    1d90:	00008067          	ret
    1d94:	00008067          	ret

00001d98 <core_list_reverse>:
    1d98:	02050063          	beqz	a0,1db8 <core_list_reverse+0x20>
    1d9c:	00000713          	li	a4,0
    1da0:	0080006f          	j	1da8 <core_list_reverse+0x10>
    1da4:	00078513          	mv	a0,a5
    1da8:	00052783          	lw	a5,0(a0)
    1dac:	00e52023          	sw	a4,0(a0)
    1db0:	00050713          	mv	a4,a0
    1db4:	fe0798e3          	bnez	a5,1da4 <core_list_reverse+0xc>
    1db8:	00008067          	ret

00001dbc <core_list_mergesort>:
    1dbc:	fd010113          	addi	sp,sp,-48
    1dc0:	02912223          	sw	s1,36(sp)
    1dc4:	01512a23          	sw	s5,20(sp)
    1dc8:	01712623          	sw	s7,12(sp)
    1dcc:	01912223          	sw	s9,4(sp)
    1dd0:	01a12023          	sw	s10,0(sp)
    1dd4:	02112623          	sw	ra,44(sp)
    1dd8:	02812423          	sw	s0,40(sp)
    1ddc:	03212023          	sw	s2,32(sp)
    1de0:	01312e23          	sw	s3,28(sp)
    1de4:	01412c23          	sw	s4,24(sp)
    1de8:	01612823          	sw	s6,16(sp)
    1dec:	01812423          	sw	s8,8(sp)
    1df0:	00050493          	mv	s1,a0
    1df4:	00058b93          	mv	s7,a1
    1df8:	00060d13          	mv	s10,a2
    1dfc:	00100a93          	li	s5,1
    1e00:	00100c93          	li	s9,1
    1e04:	0c048063          	beqz	s1,1ec4 <core_list_mergesort+0x108>
    1e08:	00000c13          	li	s8,0
    1e0c:	00000913          	li	s2,0
    1e10:	00000b13          	li	s6,0
    1e14:	001c0c13          	addi	s8,s8,1 # 9001 <_stdin+0x689>
    1e18:	00048793          	mv	a5,s1
    1e1c:	00000413          	li	s0,0
    1e20:	0007a783          	lw	a5,0(a5)
    1e24:	00140413          	addi	s0,s0,1
    1e28:	00078463          	beqz	a5,1e30 <core_list_mergesort+0x74>
    1e2c:	fe8a9ae3          	bne	s5,s0,1e20 <core_list_mergesort+0x64>
    1e30:	00048a13          	mv	s4,s1
    1e34:	000a8993          	mv	s3,s5
    1e38:	00078493          	mv	s1,a5
    1e3c:	02040e63          	beqz	s0,1e78 <core_list_mergesort+0xbc>
    1e40:	04098e63          	beqz	s3,1e9c <core_list_mergesort+0xe0>
    1e44:	04048c63          	beqz	s1,1e9c <core_list_mergesort+0xe0>
    1e48:	0044a583          	lw	a1,4(s1)
    1e4c:	004a2503          	lw	a0,4(s4)
    1e50:	000d0613          	mv	a2,s10
    1e54:	000b80e7          	jalr	s7
    1e58:	04a05263          	blez	a0,1e9c <core_list_mergesort+0xe0>
    1e5c:	00048793          	mv	a5,s1
    1e60:	0004a483          	lw	s1,0(s1)
    1e64:	fff98993          	addi	s3,s3,-1
    1e68:	02090463          	beqz	s2,1e90 <core_list_mergesort+0xd4>
    1e6c:	00f92023          	sw	a5,0(s2)
    1e70:	00078913          	mv	s2,a5
    1e74:	fc0416e3          	bnez	s0,1e40 <core_list_mergesort+0x84>
    1e78:	02098a63          	beqz	s3,1eac <core_list_mergesort+0xf0>
    1e7c:	02048a63          	beqz	s1,1eb0 <core_list_mergesort+0xf4>
    1e80:	00048793          	mv	a5,s1
    1e84:	fff98993          	addi	s3,s3,-1
    1e88:	0004a483          	lw	s1,0(s1)
    1e8c:	fe0910e3          	bnez	s2,1e6c <core_list_mergesort+0xb0>
    1e90:	00078b13          	mv	s6,a5
    1e94:	00078913          	mv	s2,a5
    1e98:	fddff06f          	j	1e74 <core_list_mergesort+0xb8>
    1e9c:	000a0793          	mv	a5,s4
    1ea0:	fff40413          	addi	s0,s0,-1
    1ea4:	000a2a03          	lw	s4,0(s4)
    1ea8:	fc1ff06f          	j	1e68 <core_list_mergesort+0xac>
    1eac:	f60494e3          	bnez	s1,1e14 <core_list_mergesort+0x58>
    1eb0:	00092023          	sw	zero,0(s2)
    1eb4:	019c0c63          	beq	s8,s9,1ecc <core_list_mergesort+0x110>
    1eb8:	001a9a93          	slli	s5,s5,0x1
    1ebc:	000b0493          	mv	s1,s6
    1ec0:	f45ff06f          	j	1e04 <core_list_mergesort+0x48>
    1ec4:	00002023          	sw	zero,0(zero) # 0 <iterate-0x1000>
    1ec8:	00100073          	ebreak
    1ecc:	02c12083          	lw	ra,44(sp)
    1ed0:	02812403          	lw	s0,40(sp)
    1ed4:	02412483          	lw	s1,36(sp)
    1ed8:	02012903          	lw	s2,32(sp)
    1edc:	01c12983          	lw	s3,28(sp)
    1ee0:	01812a03          	lw	s4,24(sp)
    1ee4:	01412a83          	lw	s5,20(sp)
    1ee8:	00c12b83          	lw	s7,12(sp)
    1eec:	00812c03          	lw	s8,8(sp)
    1ef0:	00412c83          	lw	s9,4(sp)
    1ef4:	00012d03          	lw	s10,0(sp)
    1ef8:	000b0513          	mv	a0,s6
    1efc:	01012b03          	lw	s6,16(sp)
    1f00:	03010113          	addi	sp,sp,48
    1f04:	00008067          	ret

00001f08 <core_bench_list>:
    1f08:	fc010113          	addi	sp,sp,-64
    1f0c:	01912a23          	sw	s9,20(sp)
    1f10:	00451c83          	lh	s9,4(a0)
    1f14:	02912a23          	sw	s1,52(sp)
    1f18:	03612023          	sw	s6,32(sp)
    1f1c:	01712e23          	sw	s7,28(sp)
    1f20:	02112e23          	sw	ra,60(sp)
    1f24:	02812c23          	sw	s0,56(sp)
    1f28:	03212823          	sw	s2,48(sp)
    1f2c:	03312623          	sw	s3,44(sp)
    1f30:	03412423          	sw	s4,40(sp)
    1f34:	03512223          	sw	s5,36(sp)
    1f38:	01812c23          	sw	s8,24(sp)
    1f3c:	01a12823          	sw	s10,16(sp)
    1f40:	00011623          	sh	zero,12(sp)
    1f44:	00b11723          	sh	a1,14(sp)
    1f48:	02452483          	lw	s1,36(a0)
    1f4c:	00050b93          	mv	s7,a0
    1f50:	00058b13          	mv	s6,a1
    1f54:	1f905063          	blez	s9,2134 <__heap_size+0x134>
    1f58:	00058d13          	mv	s10,a1
    1f5c:	00000913          	li	s2,0
    1f60:	00000c13          	li	s8,0
    1f64:	00000a13          	li	s4,0
    1f68:	00000413          	li	s0,0
    1f6c:	00c10a93          	addi	s5,sp,12
    1f70:	0ff97793          	zext.b	a5,s2
    1f74:	000a8593          	mv	a1,s5
    1f78:	00048513          	mv	a0,s1
    1f7c:	00f11623          	sh	a5,12(sp)
    1f80:	dc1ff0ef          	jal	ra,1d40 <core_list_find>
    1f84:	00050993          	mv	s3,a0
    1f88:	00048513          	mv	a0,s1
    1f8c:	e0dff0ef          	jal	ra,1d98 <core_list_reverse>
    1f90:	001a0793          	addi	a5,s4,1
    1f94:	00050493          	mv	s1,a0
    1f98:	06098863          	beqz	s3,2008 <__heap_size+0x8>
    1f9c:	0049a703          	lw	a4,4(s3)
    1fa0:	01079a13          	slli	s4,a5,0x10
    1fa4:	010a5a13          	srli	s4,s4,0x10
    1fa8:	00071703          	lh	a4,0(a4)
    1fac:	40975793          	srai	a5,a4,0x9
    1fb0:	0017f793          	andi	a5,a5,1
    1fb4:	00177713          	andi	a4,a4,1
    1fb8:	00f407b3          	add	a5,s0,a5
    1fbc:	00070663          	beqz	a4,1fc8 <core_bench_list+0xc0>
    1fc0:	01079413          	slli	s0,a5,0x10
    1fc4:	01045413          	srli	s0,s0,0x10
    1fc8:	0009a783          	lw	a5,0(s3)
    1fcc:	00078c63          	beqz	a5,1fe4 <core_bench_list+0xdc>
    1fd0:	0007a703          	lw	a4,0(a5)
    1fd4:	00e9a023          	sw	a4,0(s3)
    1fd8:	0004a703          	lw	a4,0(s1)
    1fdc:	00e7a023          	sw	a4,0(a5)
    1fe0:	00f4a023          	sw	a5,0(s1)
    1fe4:	00190913          	addi	s2,s2,1
    1fe8:	01091913          	slli	s2,s2,0x10
    1fec:	41095913          	srai	s2,s2,0x10
    1ff0:	001d0793          	addi	a5,s10,1
    1ff4:	000d4463          	bltz	s10,1ffc <core_bench_list+0xf4>
    1ff8:	00f11723          	sh	a5,14(sp)
    1ffc:	032c8c63          	beq	s9,s2,2034 <__heap_size+0x34>
    2000:	00e11d03          	lh	s10,14(sp)
    2004:	f6dff06f          	j	1f70 <core_bench_list+0x68>
    2008:	00052783          	lw	a5,0(a0)
    200c:	001c0c13          	addi	s8,s8,1
    2010:	010c1c13          	slli	s8,s8,0x10
    2014:	0047a783          	lw	a5,4(a5)
    2018:	010c5c13          	srli	s8,s8,0x10
    201c:	00178783          	lb	a5,1(a5)
    2020:	0017f793          	andi	a5,a5,1
    2024:	00f40433          	add	s0,s0,a5
    2028:	01041413          	slli	s0,s0,0x10
    202c:	01045413          	srli	s0,s0,0x10
    2030:	fb5ff06f          	j	1fe4 <core_bench_list+0xdc>
    2034:	002a1a13          	slli	s4,s4,0x2
    2038:	418a0c33          	sub	s8,s4,s8
    203c:	01840433          	add	s0,s0,s8
    2040:	01041413          	slli	s0,s0,0x10
    2044:	01045413          	srli	s0,s0,0x10
    2048:	01605e63          	blez	s6,2064 <__heap_size+0x64>
    204c:	000025b7          	lui	a1,0x2
    2050:	00048513          	mv	a0,s1
    2054:	000b8613          	mv	a2,s7
    2058:	c3858593          	addi	a1,a1,-968 # 1c38 <cmp_complex>
    205c:	d61ff0ef          	jal	ra,1dbc <core_list_mergesort>
    2060:	00050493          	mv	s1,a0
    2064:	0004a503          	lw	a0,0(s1)
    2068:	c91ff0ef          	jal	ra,1cf8 <core_list_remove>
    206c:	00050993          	mv	s3,a0
    2070:	000a8593          	mv	a1,s5
    2074:	00048513          	mv	a0,s1
    2078:	cc9ff0ef          	jal	ra,1d40 <core_list_find>
    207c:	00050913          	mv	s2,a0
    2080:	0a050463          	beqz	a0,2128 <__heap_size+0x128>
    2084:	0044a783          	lw	a5,4(s1)
    2088:	00040593          	mv	a1,s0
    208c:	00079503          	lh	a0,0(a5)
    2090:	a05ff0ef          	jal	ra,1a94 <crc16>
    2094:	00092903          	lw	s2,0(s2)
    2098:	00050413          	mv	s0,a0
    209c:	fe0914e3          	bnez	s2,2084 <__heap_size+0x84>
    20a0:	0004a903          	lw	s2,0(s1)
    20a4:	00090593          	mv	a1,s2
    20a8:	00098513          	mv	a0,s3
    20ac:	c75ff0ef          	jal	ra,1d20 <core_list_undo_remove>
    20b0:	000025b7          	lui	a1,0x2
    20b4:	00048513          	mv	a0,s1
    20b8:	00000613          	li	a2,0
    20bc:	aa858593          	addi	a1,a1,-1368 # 1aa8 <cmp_idx>
    20c0:	cfdff0ef          	jal	ra,1dbc <core_list_mergesort>
    20c4:	00052483          	lw	s1,0(a0)
    20c8:	00050913          	mv	s2,a0
    20cc:	02048063          	beqz	s1,20ec <__heap_size+0xec>
    20d0:	00492783          	lw	a5,4(s2)
    20d4:	00040593          	mv	a1,s0
    20d8:	00079503          	lh	a0,0(a5)
    20dc:	9b9ff0ef          	jal	ra,1a94 <crc16>
    20e0:	0004a483          	lw	s1,0(s1)
    20e4:	00050413          	mv	s0,a0
    20e8:	fe0494e3          	bnez	s1,20d0 <__heap_size+0xd0>
    20ec:	03c12083          	lw	ra,60(sp)
    20f0:	00040513          	mv	a0,s0
    20f4:	03812403          	lw	s0,56(sp)
    20f8:	03412483          	lw	s1,52(sp)
    20fc:	03012903          	lw	s2,48(sp)
    2100:	02c12983          	lw	s3,44(sp)
    2104:	02812a03          	lw	s4,40(sp)
    2108:	02412a83          	lw	s5,36(sp)
    210c:	02012b03          	lw	s6,32(sp)
    2110:	01c12b83          	lw	s7,28(sp)
    2114:	01812c03          	lw	s8,24(sp)
    2118:	01412c83          	lw	s9,20(sp)
    211c:	01012d03          	lw	s10,16(sp)
    2120:	04010113          	addi	sp,sp,64
    2124:	00008067          	ret
    2128:	0004a903          	lw	s2,0(s1)
    212c:	f4091ce3          	bnez	s2,2084 <__heap_size+0x84>
    2130:	f75ff06f          	j	20a4 <__heap_size+0xa4>
    2134:	00000413          	li	s0,0
    2138:	00c10a93          	addi	s5,sp,12
    213c:	f0dff06f          	j	2048 <__heap_size+0x48>

00002140 <core_list_init>:
    2140:	fc010113          	addi	sp,sp,-64
    2144:	03212823          	sw	s2,48(sp)
    2148:	01400913          	li	s2,20
    214c:	03255933          	divu	s2,a0,s2
    2150:	02812c23          	sw	s0,56(sp)
    2154:	02912a23          	sw	s1,52(sp)
    2158:	03312623          	sw	s3,44(sp)
    215c:	03412423          	sw	s4,40(sp)
    2160:	03512223          	sw	s5,36(sp)
    2164:	03612023          	sw	s6,32(sp)
    2168:	02112e23          	sw	ra,60(sp)
    216c:	00058a93          	mv	s5,a1
    2170:	0005a023          	sw	zero,0(a1)
    2174:	ffff87b7          	lui	a5,0xffff8
    2178:	08078793          	addi	a5,a5,128 # ffff8080 <__heap_start+0xfffeb700>
    217c:	00060413          	mv	s0,a2
    2180:	00858893          	addi	a7,a1,8
    2184:	01810693          	addi	a3,sp,24
    2188:	00c10613          	addi	a2,sp,12
    218c:	01c10593          	addi	a1,sp,28
    2190:	000a8513          	mv	a0,s5
    2194:	01041993          	slli	s3,s0,0x10
    2198:	0109d993          	srli	s3,s3,0x10
    219c:	00000493          	li	s1,0
    21a0:	ffe90913          	addi	s2,s2,-2
    21a4:	00391b13          	slli	s6,s2,0x3
    21a8:	016a8b33          	add	s6,s5,s6
    21ac:	016aa223          	sw	s6,4(s5)
    21b0:	00fb1023          	sh	a5,0(s6)
    21b4:	000b1123          	sh	zero,2(s6)
    21b8:	004b0813          	addi	a6,s6,4
    21bc:	00291a13          	slli	s4,s2,0x2
    21c0:	01012c23          	sw	a6,24(sp)
    21c4:	014b0a33          	add	s4,s6,s4
    21c8:	80000837          	lui	a6,0x80000
    21cc:	fff84813          	not	a6,a6
    21d0:	000a0793          	mv	a5,s4
    21d4:	000b0713          	mv	a4,s6
    21d8:	01112623          	sw	a7,12(sp)
    21dc:	01012e23          	sw	a6,28(sp)
    21e0:	ab9ff0ef          	jal	ra,1c98 <core_list_insert_new>
    21e4:	04090863          	beqz	s2,2234 <core_list_init+0xf4>
    21e8:	01049813          	slli	a6,s1,0x10
    21ec:	01085813          	srli	a6,a6,0x10
    21f0:	013846b3          	xor	a3,a6,s3
    21f4:	00369693          	slli	a3,a3,0x3
    21f8:	00787813          	andi	a6,a6,7
    21fc:	0786f693          	andi	a3,a3,120
    2200:	0106e6b3          	or	a3,a3,a6
    2204:	00869813          	slli	a6,a3,0x8
    2208:	00d86833          	or	a6,a6,a3
    220c:	00148493          	addi	s1,s1,1
    2210:	000a0793          	mv	a5,s4
    2214:	000b0713          	mv	a4,s6
    2218:	01810693          	addi	a3,sp,24
    221c:	00c10613          	addi	a2,sp,12
    2220:	01c10593          	addi	a1,sp,28
    2224:	000a8513          	mv	a0,s5
    2228:	01011e23          	sh	a6,28(sp)
    222c:	a6dff0ef          	jal	ra,1c98 <core_list_insert_new>
    2230:	fa991ce3          	bne	s2,s1,21e8 <core_list_init+0xa8>
    2234:	000aa583          	lw	a1,0(s5)
    2238:	0005a603          	lw	a2,0(a1)
    223c:	06060e63          	beqz	a2,22b8 <core_list_init+0x178>
    2240:	00500793          	li	a5,5
    2244:	00004837          	lui	a6,0x4
    2248:	02f95933          	divu	s2,s2,a5
    224c:	20000713          	li	a4,512
    2250:	00100693          	li	a3,1
    2254:	fff80813          	addi	a6,a6,-1 # 3fff <__divdi3+0x2fb>
    2258:	0280006f          	j	2280 <core_list_init+0x140>
    225c:	00062783          	lw	a5,0(a2)
    2260:	10070713          	addi	a4,a4,256
    2264:	00d59123          	sh	a3,2(a1)
    2268:	01071713          	slli	a4,a4,0x10
    226c:	00060593          	mv	a1,a2
    2270:	00168693          	addi	a3,a3,1
    2274:	01075713          	srli	a4,a4,0x10
    2278:	04078063          	beqz	a5,22b8 <core_list_init+0x178>
    227c:	00078613          	mv	a2,a5
    2280:	70077793          	andi	a5,a4,1792
    2284:	00d44533          	xor	a0,s0,a3
    2288:	00a7e7b3          	or	a5,a5,a0
    228c:	0045a583          	lw	a1,4(a1)
    2290:	0107f7b3          	and	a5,a5,a6
    2294:	fd26e4e3          	bltu	a3,s2,225c <core_list_init+0x11c>
    2298:	00f59123          	sh	a5,2(a1)
    229c:	00062783          	lw	a5,0(a2)
    22a0:	10070713          	addi	a4,a4,256
    22a4:	01071713          	slli	a4,a4,0x10
    22a8:	00060593          	mv	a1,a2
    22ac:	00168693          	addi	a3,a3,1
    22b0:	01075713          	srli	a4,a4,0x10
    22b4:	fc0794e3          	bnez	a5,227c <core_list_init+0x13c>
    22b8:	000025b7          	lui	a1,0x2
    22bc:	000a8513          	mv	a0,s5
    22c0:	00000613          	li	a2,0
    22c4:	aa858593          	addi	a1,a1,-1368 # 1aa8 <cmp_idx>
    22c8:	af5ff0ef          	jal	ra,1dbc <core_list_mergesort>
    22cc:	03c12083          	lw	ra,60(sp)
    22d0:	03812403          	lw	s0,56(sp)
    22d4:	03412483          	lw	s1,52(sp)
    22d8:	03012903          	lw	s2,48(sp)
    22dc:	02c12983          	lw	s3,44(sp)
    22e0:	02812a03          	lw	s4,40(sp)
    22e4:	02412a83          	lw	s5,36(sp)
    22e8:	02012b03          	lw	s6,32(sp)
    22ec:	04010113          	addi	sp,sp,64
    22f0:	00008067          	ret

000022f4 <core_init_matrix>:
    22f4:	ff010113          	addi	sp,sp,-16
    22f8:	00812623          	sw	s0,12(sp)
    22fc:	00912423          	sw	s1,8(sp)
    2300:	01212223          	sw	s2,4(sp)
    2304:	01312023          	sw	s3,0(sp)
    2308:	00050813          	mv	a6,a0
    230c:	00068413          	mv	s0,a3
    2310:	00061463          	bnez	a2,2318 <core_init_matrix+0x24>
    2314:	00100613          	li	a2,1
    2318:	fff58593          	addi	a1,a1,-1
    231c:	ffc5f393          	andi	t2,a1,-4
    2320:	00438913          	addi	s2,t2,4
    2324:	00000793          	li	a5,0
    2328:	10080063          	beqz	a6,2428 <core_init_matrix+0x134>
    232c:	00078513          	mv	a0,a5
    2330:	00178793          	addi	a5,a5,1
    2334:	02f78733          	mul	a4,a5,a5
    2338:	00371713          	slli	a4,a4,0x3
    233c:	ff0768e3          	bltu	a4,a6,232c <core_init_matrix+0x38>
    2340:	02a506b3          	mul	a3,a0,a0
    2344:	00050993          	mv	s3,a0
    2348:	00169693          	slli	a3,a3,0x1
    234c:	00d903b3          	add	t2,s2,a3
    2350:	0a050063          	beqz	a0,23f0 <core_init_matrix+0xfc>
    2354:	00010e37          	lui	t3,0x10
    2358:	00000293          	li	t0,0
    235c:	00000f93          	li	t6,0
    2360:	00100f13          	li	t5,1
    2364:	40790eb3          	sub	t4,s2,t2
    2368:	fffe0e13          	addi	t3,t3,-1 # ffff <__heap_start+0x367f>
    236c:	fff50493          	addi	s1,a0,-1
    2370:	00129593          	slli	a1,t0,0x1
    2374:	007585b3          	add	a1,a1,t2
    2378:	000f0813          	mv	a6,t5
    237c:	00000893          	li	a7,0
    2380:	03060633          	mul	a2,a2,a6
    2384:	01081793          	slli	a5,a6,0x10
    2388:	0107d793          	srli	a5,a5,0x10
    238c:	00be8333          	add	t1,t4,a1
    2390:	00258593          	addi	a1,a1,2
    2394:	00188893          	addi	a7,a7,1
    2398:	00180813          	addi	a6,a6,1
    239c:	41f65713          	srai	a4,a2,0x1f
    23a0:	01075713          	srli	a4,a4,0x10
    23a4:	00e60633          	add	a2,a2,a4
    23a8:	01c67633          	and	a2,a2,t3
    23ac:	40e60633          	sub	a2,a2,a4
    23b0:	00c78733          	add	a4,a5,a2
    23b4:	01071713          	slli	a4,a4,0x10
    23b8:	01075713          	srli	a4,a4,0x10
    23bc:	00f707b3          	add	a5,a4,a5
    23c0:	fee59f23          	sh	a4,-2(a1)
    23c4:	0ff7f793          	zext.b	a5,a5
    23c8:	00f31023          	sh	a5,0(t1)
    23cc:	faa8eae3          	bltu	a7,a0,2380 <core_init_matrix+0x8c>
    23d0:	001f0f13          	addi	t5,t5,1
    23d4:	00000793          	li	a5,0
    23d8:	00050463          	beqz	a0,23e0 <core_init_matrix+0xec>
    23dc:	00048793          	mv	a5,s1
    23e0:	001f8f93          	addi	t6,t6,1
    23e4:	01e78f33          	add	t5,a5,t5
    23e8:	00a282b3          	add	t0,t0,a0
    23ec:	f8afe2e3          	bltu	t6,a0,2370 <core_init_matrix+0x7c>
    23f0:	00d387b3          	add	a5,t2,a3
    23f4:	fff78793          	addi	a5,a5,-1
    23f8:	ffc7f793          	andi	a5,a5,-4
    23fc:	00478793          	addi	a5,a5,4
    2400:	01242223          	sw	s2,4(s0)
    2404:	01342023          	sw	s3,0(s0)
    2408:	00742423          	sw	t2,8(s0)
    240c:	00f42623          	sw	a5,12(s0)
    2410:	00c12403          	lw	s0,12(sp)
    2414:	00812483          	lw	s1,8(sp)
    2418:	00412903          	lw	s2,4(sp)
    241c:	00012983          	lw	s3,0(sp)
    2420:	01010113          	addi	sp,sp,16
    2424:	00008067          	ret
    2428:	00638393          	addi	t2,t2,6
    242c:	fff00993          	li	s3,-1
    2430:	fff00513          	li	a0,-1
    2434:	00200693          	li	a3,2
    2438:	f1dff06f          	j	2354 <core_init_matrix+0x60>

0000243c <matrix_sum>:
    243c:	00050e93          	mv	t4,a0
    2440:	08050663          	beqz	a0,24cc <matrix_sum+0x90>
    2444:	40a00f33          	neg	t5,a0
    2448:	00251893          	slli	a7,a0,0x2
    244c:	011588b3          	add	a7,a1,a7
    2450:	002f1f93          	slli	t6,t5,0x2
    2454:	00000313          	li	t1,0
    2458:	00000513          	li	a0,0
    245c:	00000713          	li	a4,0
    2460:	00000593          	li	a1,0
    2464:	003f1f13          	slli	t5,t5,0x3
    2468:	011f8e33          	add	t3,t6,a7
    246c:	000e0793          	mv	a5,t3
    2470:	0180006f          	j	2488 <matrix_sum+0x4c>
    2474:	01081513          	slli	a0,a6,0x10
    2478:	00478793          	addi	a5,a5,4
    247c:	41055513          	srai	a0,a0,0x10
    2480:	00000593          	li	a1,0
    2484:	02f88c63          	beq	a7,a5,24bc <matrix_sum+0x80>
    2488:	00070693          	mv	a3,a4
    248c:	0007a703          	lw	a4,0(a5)
    2490:	01051513          	slli	a0,a0,0x10
    2494:	01055513          	srli	a0,a0,0x10
    2498:	00e6a6b3          	slt	a3,a3,a4
    249c:	00e585b3          	add	a1,a1,a4
    24a0:	00a50813          	addi	a6,a0,10
    24a4:	00d50533          	add	a0,a0,a3
    24a8:	fcb646e3          	blt	a2,a1,2474 <matrix_sum+0x38>
    24ac:	01051513          	slli	a0,a0,0x10
    24b0:	00478793          	addi	a5,a5,4
    24b4:	41055513          	srai	a0,a0,0x10
    24b8:	fcf898e3          	bne	a7,a5,2488 <matrix_sum+0x4c>
    24bc:	00130313          	addi	t1,t1,1
    24c0:	41ee08b3          	sub	a7,t3,t5
    24c4:	fa6e92e3          	bne	t4,t1,2468 <matrix_sum+0x2c>
    24c8:	00008067          	ret
    24cc:	00000513          	li	a0,0
    24d0:	00008067          	ret

000024d4 <matrix_mul_const>:
    24d4:	04050c63          	beqz	a0,252c <matrix_mul_const+0x58>
    24d8:	40a00eb3          	neg	t4,a0
    24dc:	00151813          	slli	a6,a0,0x1
    24e0:	001e9f13          	slli	t5,t4,0x1
    24e4:	01060833          	add	a6,a2,a6
    24e8:	00000313          	li	t1,0
    24ec:	00000893          	li	a7,0
    24f0:	002e9e93          	slli	t4,t4,0x2
    24f4:	01e80e33          	add	t3,a6,t5
    24f8:	00231613          	slli	a2,t1,0x2
    24fc:	00c58633          	add	a2,a1,a2
    2500:	000e0793          	mv	a5,t3
    2504:	00079703          	lh	a4,0(a5)
    2508:	00460613          	addi	a2,a2,4
    250c:	00278793          	addi	a5,a5,2
    2510:	02d70733          	mul	a4,a4,a3
    2514:	fee62e23          	sw	a4,-4(a2)
    2518:	fef816e3          	bne	a6,a5,2504 <matrix_mul_const+0x30>
    251c:	00188893          	addi	a7,a7,1
    2520:	00a30333          	add	t1,t1,a0
    2524:	41de0833          	sub	a6,t3,t4
    2528:	fd1516e3          	bne	a0,a7,24f4 <matrix_mul_const+0x20>
    252c:	00008067          	ret

00002530 <matrix_add_const>:
    2530:	04050663          	beqz	a0,257c <matrix_add_const+0x4c>
    2534:	40a008b3          	neg	a7,a0
    2538:	00151693          	slli	a3,a0,0x1
    253c:	01061613          	slli	a2,a2,0x10
    2540:	00d586b3          	add	a3,a1,a3
    2544:	00189313          	slli	t1,a7,0x1
    2548:	01065613          	srli	a2,a2,0x10
    254c:	00000593          	li	a1,0
    2550:	00289893          	slli	a7,a7,0x2
    2554:	00d30833          	add	a6,t1,a3
    2558:	00080793          	mv	a5,a6
    255c:	0007d703          	lhu	a4,0(a5)
    2560:	00278793          	addi	a5,a5,2
    2564:	00e60733          	add	a4,a2,a4
    2568:	fee79f23          	sh	a4,-2(a5)
    256c:	fef698e3          	bne	a3,a5,255c <matrix_add_const+0x2c>
    2570:	00158593          	addi	a1,a1,1
    2574:	411806b3          	sub	a3,a6,a7
    2578:	fcb51ee3          	bne	a0,a1,2554 <matrix_add_const+0x24>
    257c:	00008067          	ret

00002580 <matrix_mul_vect>:
    2580:	04050c63          	beqz	a0,25d8 <matrix_mul_vect+0x58>
    2584:	00251f13          	slli	t5,a0,0x2
    2588:	00151313          	slli	t1,a0,0x1
    258c:	00058e13          	mv	t3,a1
    2590:	01e58f33          	add	t5,a1,t5
    2594:	00668333          	add	t1,a3,t1
    2598:	00000e93          	li	t4,0
    259c:	001e9593          	slli	a1,t4,0x1
    25a0:	00b605b3          	add	a1,a2,a1
    25a4:	00068793          	mv	a5,a3
    25a8:	00000813          	li	a6,0
    25ac:	00059703          	lh	a4,0(a1)
    25b0:	00079883          	lh	a7,0(a5)
    25b4:	00278793          	addi	a5,a5,2
    25b8:	00258593          	addi	a1,a1,2
    25bc:	03170733          	mul	a4,a4,a7
    25c0:	00e80833          	add	a6,a6,a4
    25c4:	fef314e3          	bne	t1,a5,25ac <matrix_mul_vect+0x2c>
    25c8:	010e2023          	sw	a6,0(t3)
    25cc:	004e0e13          	addi	t3,t3,4
    25d0:	00ae8eb3          	add	t4,t4,a0
    25d4:	fdcf14e3          	bne	t5,t3,259c <matrix_mul_vect+0x1c>
    25d8:	00008067          	ret

000025dc <matrix_mul_matrix>:
    25dc:	0a050463          	beqz	a0,2684 <matrix_mul_matrix+0xa8>
    25e0:	ff010113          	addi	sp,sp,-16
    25e4:	00050f13          	mv	t5,a0
    25e8:	00151513          	slli	a0,a0,0x1
    25ec:	00812623          	sw	s0,12(sp)
    25f0:	00058393          	mv	t2,a1
    25f4:	00068413          	mv	s0,a3
    25f8:	00060e93          	mv	t4,a2
    25fc:	00a60833          	add	a6,a2,a0
    2600:	00000f93          	li	t6,0
    2604:	00000293          	li	t0,0
    2608:	002f9893          	slli	a7,t6,0x2
    260c:	011388b3          	add	a7,t2,a7
    2610:	00040313          	mv	t1,s0
    2614:	00000e13          	li	t3,0
    2618:	00030693          	mv	a3,t1
    261c:	000e8793          	mv	a5,t4
    2620:	00000613          	li	a2,0
    2624:	00079703          	lh	a4,0(a5)
    2628:	00069583          	lh	a1,0(a3)
    262c:	00278793          	addi	a5,a5,2
    2630:	00a686b3          	add	a3,a3,a0
    2634:	02b70733          	mul	a4,a4,a1
    2638:	00e60633          	add	a2,a2,a4
    263c:	fef814e3          	bne	a6,a5,2624 <matrix_mul_matrix+0x48>
    2640:	00c8a023          	sw	a2,0(a7)
    2644:	001e0793          	addi	a5,t3,1
    2648:	00488893          	addi	a7,a7,4
    264c:	00230313          	addi	t1,t1,2
    2650:	00ff0663          	beq	t5,a5,265c <matrix_mul_matrix+0x80>
    2654:	00078e13          	mv	t3,a5
    2658:	fc1ff06f          	j	2618 <matrix_mul_matrix+0x3c>
    265c:	00128793          	addi	a5,t0,1
    2660:	00ae8eb3          	add	t4,t4,a0
    2664:	01ef8fb3          	add	t6,t6,t5
    2668:	00a80833          	add	a6,a6,a0
    266c:	01c28663          	beq	t0,t3,2678 <matrix_mul_matrix+0x9c>
    2670:	00078293          	mv	t0,a5
    2674:	f95ff06f          	j	2608 <matrix_mul_matrix+0x2c>
    2678:	00c12403          	lw	s0,12(sp)
    267c:	01010113          	addi	sp,sp,16
    2680:	00008067          	ret
    2684:	00008067          	ret

00002688 <matrix_mul_matrix_bitextract>:
    2688:	0a050e63          	beqz	a0,2744 <matrix_mul_matrix_bitextract+0xbc>
    268c:	ff010113          	addi	sp,sp,-16
    2690:	00050f13          	mv	t5,a0
    2694:	00151513          	slli	a0,a0,0x1
    2698:	00812623          	sw	s0,12(sp)
    269c:	00058393          	mv	t2,a1
    26a0:	00068413          	mv	s0,a3
    26a4:	00060e93          	mv	t4,a2
    26a8:	00a60833          	add	a6,a2,a0
    26ac:	00000f93          	li	t6,0
    26b0:	00000293          	li	t0,0
    26b4:	002f9893          	slli	a7,t6,0x2
    26b8:	011388b3          	add	a7,t2,a7
    26bc:	00040313          	mv	t1,s0
    26c0:	00000e13          	li	t3,0
    26c4:	00030613          	mv	a2,t1
    26c8:	000e8693          	mv	a3,t4
    26cc:	00000593          	li	a1,0
    26d0:	00061703          	lh	a4,0(a2)
    26d4:	00069783          	lh	a5,0(a3)
    26d8:	00268693          	addi	a3,a3,2
    26dc:	00a60633          	add	a2,a2,a0
    26e0:	02e787b3          	mul	a5,a5,a4
    26e4:	4027d713          	srai	a4,a5,0x2
    26e8:	4057d793          	srai	a5,a5,0x5
    26ec:	00f77713          	andi	a4,a4,15
    26f0:	07f7f793          	andi	a5,a5,127
    26f4:	02f707b3          	mul	a5,a4,a5
    26f8:	00f585b3          	add	a1,a1,a5
    26fc:	fcd81ae3          	bne	a6,a3,26d0 <matrix_mul_matrix_bitextract+0x48>
    2700:	00b8a023          	sw	a1,0(a7)
    2704:	001e0793          	addi	a5,t3,1
    2708:	00488893          	addi	a7,a7,4
    270c:	00230313          	addi	t1,t1,2
    2710:	00ff0663          	beq	t5,a5,271c <matrix_mul_matrix_bitextract+0x94>
    2714:	00078e13          	mv	t3,a5
    2718:	fadff06f          	j	26c4 <matrix_mul_matrix_bitextract+0x3c>
    271c:	00128793          	addi	a5,t0,1
    2720:	00ae8eb3          	add	t4,t4,a0
    2724:	01ef8fb3          	add	t6,t6,t5
    2728:	00a80833          	add	a6,a6,a0
    272c:	01c28663          	beq	t0,t3,2738 <matrix_mul_matrix_bitextract+0xb0>
    2730:	00078293          	mv	t0,a5
    2734:	f81ff06f          	j	26b4 <matrix_mul_matrix_bitextract+0x2c>
    2738:	00c12403          	lw	s0,12(sp)
    273c:	01010113          	addi	sp,sp,16
    2740:	00008067          	ret
    2744:	00008067          	ret

00002748 <matrix_test>:
    2748:	fe010113          	addi	sp,sp,-32
    274c:	01212823          	sw	s2,16(sp)
    2750:	00060913          	mv	s2,a2
    2754:	00912a23          	sw	s1,20(sp)
    2758:	00070613          	mv	a2,a4
    275c:	01412423          	sw	s4,8(sp)
    2760:	00058493          	mv	s1,a1
    2764:	fffffa37          	lui	s4,0xfffff
    2768:	00090593          	mv	a1,s2
    276c:	00112e23          	sw	ra,28(sp)
    2770:	01476a33          	or	s4,a4,s4
    2774:	00812c23          	sw	s0,24(sp)
    2778:	01312623          	sw	s3,12(sp)
    277c:	01512223          	sw	s5,4(sp)
    2780:	00070993          	mv	s3,a4
    2784:	01612023          	sw	s6,0(sp)
    2788:	00050413          	mv	s0,a0
    278c:	00068a93          	mv	s5,a3
    2790:	da1ff0ef          	jal	ra,2530 <matrix_add_const>
    2794:	00098693          	mv	a3,s3
    2798:	00090613          	mv	a2,s2
    279c:	00048593          	mv	a1,s1
    27a0:	00040513          	mv	a0,s0
    27a4:	d31ff0ef          	jal	ra,24d4 <matrix_mul_const>
    27a8:	000a0613          	mv	a2,s4
    27ac:	00048593          	mv	a1,s1
    27b0:	00040513          	mv	a0,s0
    27b4:	c89ff0ef          	jal	ra,243c <matrix_sum>
    27b8:	00000593          	li	a1,0
    27bc:	ad8ff0ef          	jal	ra,1a94 <crc16>
    27c0:	000a8693          	mv	a3,s5
    27c4:	00050b13          	mv	s6,a0
    27c8:	00090613          	mv	a2,s2
    27cc:	00048593          	mv	a1,s1
    27d0:	00040513          	mv	a0,s0
    27d4:	dadff0ef          	jal	ra,2580 <matrix_mul_vect>
    27d8:	000a0613          	mv	a2,s4
    27dc:	00048593          	mv	a1,s1
    27e0:	00040513          	mv	a0,s0
    27e4:	c59ff0ef          	jal	ra,243c <matrix_sum>
    27e8:	000b0593          	mv	a1,s6
    27ec:	aa8ff0ef          	jal	ra,1a94 <crc16>
    27f0:	000a8693          	mv	a3,s5
    27f4:	00050b13          	mv	s6,a0
    27f8:	00090613          	mv	a2,s2
    27fc:	00048593          	mv	a1,s1
    2800:	00040513          	mv	a0,s0
    2804:	dd9ff0ef          	jal	ra,25dc <matrix_mul_matrix>
    2808:	000a0613          	mv	a2,s4
    280c:	00048593          	mv	a1,s1
    2810:	00040513          	mv	a0,s0
    2814:	c29ff0ef          	jal	ra,243c <matrix_sum>
    2818:	000b0593          	mv	a1,s6
    281c:	a78ff0ef          	jal	ra,1a94 <crc16>
    2820:	00050793          	mv	a5,a0
    2824:	000a8693          	mv	a3,s5
    2828:	00090613          	mv	a2,s2
    282c:	00048593          	mv	a1,s1
    2830:	00040513          	mv	a0,s0
    2834:	00078a93          	mv	s5,a5
    2838:	e51ff0ef          	jal	ra,2688 <matrix_mul_matrix_bitextract>
    283c:	000a0613          	mv	a2,s4
    2840:	00048593          	mv	a1,s1
    2844:	00040513          	mv	a0,s0
    2848:	bf5ff0ef          	jal	ra,243c <matrix_sum>
    284c:	000a8593          	mv	a1,s5
    2850:	a44ff0ef          	jal	ra,1a94 <crc16>
    2854:	41300633          	neg	a2,s3
    2858:	01061613          	slli	a2,a2,0x10
    285c:	00050793          	mv	a5,a0
    2860:	00090593          	mv	a1,s2
    2864:	00040513          	mv	a0,s0
    2868:	41065613          	srai	a2,a2,0x10
    286c:	00078413          	mv	s0,a5
    2870:	cc1ff0ef          	jal	ra,2530 <matrix_add_const>
    2874:	01c12083          	lw	ra,28(sp)
    2878:	01041513          	slli	a0,s0,0x10
    287c:	01812403          	lw	s0,24(sp)
    2880:	01412483          	lw	s1,20(sp)
    2884:	01012903          	lw	s2,16(sp)
    2888:	00c12983          	lw	s3,12(sp)
    288c:	00812a03          	lw	s4,8(sp)
    2890:	00412a83          	lw	s5,4(sp)
    2894:	00012b03          	lw	s6,0(sp)
    2898:	41055513          	srai	a0,a0,0x10
    289c:	02010113          	addi	sp,sp,32
    28a0:	00008067          	ret

000028a4 <core_bench_matrix>:
    28a4:	ff010113          	addi	sp,sp,-16
    28a8:	00812423          	sw	s0,8(sp)
    28ac:	00852683          	lw	a3,8(a0)
    28b0:	00060413          	mv	s0,a2
    28b4:	00058713          	mv	a4,a1
    28b8:	00452603          	lw	a2,4(a0)
    28bc:	00c52583          	lw	a1,12(a0)
    28c0:	00052503          	lw	a0,0(a0)
    28c4:	00112623          	sw	ra,12(sp)
    28c8:	e81ff0ef          	jal	ra,2748 <matrix_test>
    28cc:	00040593          	mv	a1,s0
    28d0:	00812403          	lw	s0,8(sp)
    28d4:	00c12083          	lw	ra,12(sp)
    28d8:	01010113          	addi	sp,sp,16
    28dc:	9b8ff06f          	j	1a94 <crc16>

000028e0 <core_init_state>:
    28e0:	fff50893          	addi	a7,a0,-1
    28e4:	00100793          	li	a5,1
    28e8:	1317f263          	bgeu	a5,a7,2a0c <core_init_state+0x12c>
    28ec:	00158593          	addi	a1,a1,1
    28f0:	01059593          	slli	a1,a1,0x10
    28f4:	0105d593          	srli	a1,a1,0x10
    28f8:	ff010113          	addi	sp,sp,-16
    28fc:	00008837          	lui	a6,0x8
    2900:	0035d793          	srli	a5,a1,0x3
    2904:	00812623          	sw	s0,12(sp)
    2908:	00700e93          	li	t4,7
    290c:	0075f713          	andi	a4,a1,7
    2910:	00000693          	li	a3,0
    2914:	59c80813          	addi	a6,a6,1436 # 859c <intpat>
    2918:	00400e13          	li	t3,4
    291c:	00100313          	li	t1,1
    2920:	02c00f13          	li	t5,44
    2924:	0037f793          	andi	a5,a5,3
    2928:	07d70e63          	beq	a4,t4,29a4 <core_init_state+0xc4>
    292c:	0cee6463          	bltu	t3,a4,29f4 <core_init_state+0x114>
    2930:	ffd70713          	addi	a4,a4,-3
    2934:	01071713          	slli	a4,a4,0x10
    2938:	00279793          	slli	a5,a5,0x2
    293c:	01075713          	srli	a4,a4,0x10
    2940:	00f807b3          	add	a5,a6,a5
    2944:	0ae36063          	bltu	t1,a4,29e4 <core_init_state+0x104>
    2948:	0107a783          	lw	a5,16(a5)
    294c:	00900f93          	li	t6,9
    2950:	00800413          	li	s0,8
    2954:	01f68fb3          	add	t6,a3,t6
    2958:	071ff463          	bgeu	t6,a7,29c0 <core_init_state+0xe0>
    295c:	00d606b3          	add	a3,a2,a3
    2960:	00068713          	mv	a4,a3
    2964:	008783b3          	add	t2,a5,s0
    2968:	0007c283          	lbu	t0,0(a5)
    296c:	00178793          	addi	a5,a5,1
    2970:	00170713          	addi	a4,a4,1
    2974:	fe570fa3          	sb	t0,-1(a4)
    2978:	fe7798e3          	bne	a5,t2,2968 <core_init_state+0x88>
    297c:	00158593          	addi	a1,a1,1
    2980:	01059593          	slli	a1,a1,0x10
    2984:	008686b3          	add	a3,a3,s0
    2988:	0105d593          	srli	a1,a1,0x10
    298c:	01e68023          	sb	t5,0(a3)
    2990:	0035d793          	srli	a5,a1,0x3
    2994:	0075f713          	andi	a4,a1,7
    2998:	000f8693          	mv	a3,t6
    299c:	0037f793          	andi	a5,a5,3
    29a0:	f9d716e3          	bne	a4,t4,292c <core_init_state+0x4c>
    29a4:	00279793          	slli	a5,a5,0x2
    29a8:	00900f93          	li	t6,9
    29ac:	00f807b3          	add	a5,a6,a5
    29b0:	01f68fb3          	add	t6,a3,t6
    29b4:	0307a783          	lw	a5,48(a5)
    29b8:	00800413          	li	s0,8
    29bc:	fb1fe0e3          	bltu	t6,a7,295c <core_init_state+0x7c>
    29c0:	00d607b3          	add	a5,a2,a3
    29c4:	00a60633          	add	a2,a2,a0
    29c8:	00a6f863          	bgeu	a3,a0,29d8 <core_init_state+0xf8>
    29cc:	00078023          	sb	zero,0(a5)
    29d0:	00178793          	addi	a5,a5,1
    29d4:	fef61ce3          	bne	a2,a5,29cc <core_init_state+0xec>
    29d8:	00c12403          	lw	s0,12(sp)
    29dc:	01010113          	addi	sp,sp,16
    29e0:	00008067          	ret
    29e4:	0007a783          	lw	a5,0(a5)
    29e8:	00500f93          	li	t6,5
    29ec:	00400413          	li	s0,4
    29f0:	f65ff06f          	j	2954 <core_init_state+0x74>
    29f4:	00279793          	slli	a5,a5,0x2
    29f8:	00f807b3          	add	a5,a6,a5
    29fc:	0207a783          	lw	a5,32(a5)
    2a00:	00900f93          	li	t6,9
    2a04:	00800413          	li	s0,8
    2a08:	f4dff06f          	j	2954 <core_init_state+0x74>
    2a0c:	00000693          	li	a3,0
    2a10:	00d607b3          	add	a5,a2,a3
    2a14:	00a60633          	add	a2,a2,a0
    2a18:	00078023          	sb	zero,0(a5)
    2a1c:	00178793          	addi	a5,a5,1
    2a20:	fef61ce3          	bne	a2,a5,2a18 <core_init_state+0x138>
    2a24:	00008067          	ret

00002a28 <core_state_transition>:
    2a28:	00052783          	lw	a5,0(a0)
    2a2c:	00050813          	mv	a6,a0
    2a30:	00000513          	li	a0,0
    2a34:	0007c683          	lbu	a3,0(a5)
    2a38:	00078713          	mv	a4,a5
    2a3c:	04068a63          	beqz	a3,2a90 <core_state_transition+0x68>
    2a40:	02c00513          	li	a0,44
    2a44:	00178713          	addi	a4,a5,1
    2a48:	2aa68463          	beq	a3,a0,2cf0 <core_state_transition+0x2c8>
    2a4c:	0005a883          	lw	a7,0(a1)
    2a50:	fd068613          	addi	a2,a3,-48
    2a54:	0ff67613          	zext.b	a2,a2
    2a58:	00900313          	li	t1,9
    2a5c:	00188893          	addi	a7,a7,1
    2a60:	02c37c63          	bgeu	t1,a2,2a98 <core_state_transition+0x70>
    2a64:	02b00613          	li	a2,43
    2a68:	0ec68e63          	beq	a3,a2,2b64 <core_state_transition+0x13c>
    2a6c:	02d00613          	li	a2,45
    2a70:	0ec68a63          	beq	a3,a2,2b64 <core_state_transition+0x13c>
    2a74:	02e00613          	li	a2,46
    2a78:	22c68c63          	beq	a3,a2,2cb0 <core_state_transition+0x288>
    2a7c:	0045a783          	lw	a5,4(a1)
    2a80:	0115a023          	sw	a7,0(a1)
    2a84:	00100513          	li	a0,1
    2a88:	00178793          	addi	a5,a5,1
    2a8c:	00f5a223          	sw	a5,4(a1)
    2a90:	00e82023          	sw	a4,0(a6)
    2a94:	00008067          	ret
    2a98:	0115a023          	sw	a7,0(a1)
    2a9c:	0017c683          	lbu	a3,1(a5)
    2aa0:	12068263          	beqz	a3,2bc4 <core_state_transition+0x19c>
    2aa4:	00278793          	addi	a5,a5,2
    2aa8:	10a68c63          	beq	a3,a0,2bc0 <core_state_transition+0x198>
    2aac:	fd068613          	addi	a2,a3,-48
    2ab0:	02e00513          	li	a0,46
    2ab4:	00900893          	li	a7,9
    2ab8:	02c00313          	li	t1,44
    2abc:	0ff67613          	zext.b	a2,a2
    2ac0:	02a68663          	beq	a3,a0,2aec <core_state_transition+0xc4>
    2ac4:	08c8e263          	bltu	a7,a2,2b48 <core_state_transition+0x120>
    2ac8:	00174683          	lbu	a3,1(a4)
    2acc:	00178613          	addi	a2,a5,1
    2ad0:	00078713          	mv	a4,a5
    2ad4:	0e068663          	beqz	a3,2bc0 <core_state_transition+0x198>
    2ad8:	26668063          	beq	a3,t1,2d38 <core_state_transition+0x310>
    2adc:	00060793          	mv	a5,a2
    2ae0:	fd068613          	addi	a2,a3,-48
    2ae4:	0ff67613          	zext.b	a2,a2
    2ae8:	fca69ee3          	bne	a3,a0,2ac4 <core_state_transition+0x9c>
    2aec:	0105a683          	lw	a3,16(a1)
    2af0:	00168693          	addi	a3,a3,1
    2af4:	00d5a823          	sw	a3,16(a1)
    2af8:	00174683          	lbu	a3,1(a4)
    2afc:	20068e63          	beqz	a3,2d18 <core_state_transition+0x2f0>
    2b00:	02c00713          	li	a4,44
    2b04:	00178613          	addi	a2,a5,1
    2b08:	1ce68e63          	beq	a3,a4,2ce4 <core_state_transition+0x2bc>
    2b0c:	04500513          	li	a0,69
    2b10:	00900893          	li	a7,9
    2b14:	02c00313          	li	t1,44
    2b18:	fd068713          	addi	a4,a3,-48
    2b1c:	0df6f693          	andi	a3,a3,223
    2b20:	0ff77713          	zext.b	a4,a4
    2b24:	0aa68463          	beq	a3,a0,2bcc <core_state_transition+0x1a4>
    2b28:	16e8f663          	bgeu	a7,a4,2c94 <core_state_transition+0x26c>
    2b2c:	0145a783          	lw	a5,20(a1)
    2b30:	00060713          	mv	a4,a2
    2b34:	00100513          	li	a0,1
    2b38:	00178793          	addi	a5,a5,1
    2b3c:	00f5aa23          	sw	a5,20(a1)
    2b40:	00e82023          	sw	a4,0(a6)
    2b44:	00008067          	ret
    2b48:	0105a683          	lw	a3,16(a1)
    2b4c:	00078713          	mv	a4,a5
    2b50:	00100513          	li	a0,1
    2b54:	00168793          	addi	a5,a3,1
    2b58:	00f5a823          	sw	a5,16(a1)
    2b5c:	00e82023          	sw	a4,0(a6)
    2b60:	00008067          	ret
    2b64:	0115a023          	sw	a7,0(a1)
    2b68:	0017c883          	lbu	a7,1(a5)
    2b6c:	1a088c63          	beqz	a7,2d24 <core_state_transition+0x2fc>
    2b70:	00278713          	addi	a4,a5,2
    2b74:	1aa88863          	beq	a7,a0,2d24 <core_state_transition+0x2fc>
    2b78:	0085a603          	lw	a2,8(a1)
    2b7c:	fd088693          	addi	a3,a7,-48
    2b80:	0ff6f693          	zext.b	a3,a3
    2b84:	00900513          	li	a0,9
    2b88:	00160613          	addi	a2,a2,1
    2b8c:	00d57e63          	bgeu	a0,a3,2ba8 <core_state_transition+0x180>
    2b90:	02e00693          	li	a3,46
    2b94:	12d88c63          	beq	a7,a3,2ccc <core_state_transition+0x2a4>
    2b98:	00c5a423          	sw	a2,8(a1)
    2b9c:	00100513          	li	a0,1
    2ba0:	00e82023          	sw	a4,0(a6)
    2ba4:	00008067          	ret
    2ba8:	00c5a423          	sw	a2,8(a1)
    2bac:	0027c683          	lbu	a3,2(a5)
    2bb0:	00068a63          	beqz	a3,2bc4 <core_state_transition+0x19c>
    2bb4:	02c00613          	li	a2,44
    2bb8:	00170793          	addi	a5,a4,1
    2bbc:	eec698e3          	bne	a3,a2,2aac <core_state_transition+0x84>
    2bc0:	00078713          	mv	a4,a5
    2bc4:	00400513          	li	a0,4
    2bc8:	ec9ff06f          	j	2a90 <core_state_transition+0x68>
    2bcc:	0145a703          	lw	a4,20(a1)
    2bd0:	00170713          	addi	a4,a4,1
    2bd4:	00e5aa23          	sw	a4,20(a1)
    2bd8:	0017c783          	lbu	a5,1(a5)
    2bdc:	12078863          	beqz	a5,2d0c <core_state_transition+0x2e4>
    2be0:	02c00513          	li	a0,44
    2be4:	00160713          	addi	a4,a2,1
    2be8:	12a78463          	beq	a5,a0,2d10 <core_state_transition+0x2e8>
    2bec:	00c5a683          	lw	a3,12(a1)
    2bf0:	fd578793          	addi	a5,a5,-43
    2bf4:	0fd7f793          	andi	a5,a5,253
    2bf8:	00168693          	addi	a3,a3,1
    2bfc:	00d5a623          	sw	a3,12(a1)
    2c00:	00078863          	beqz	a5,2c10 <core_state_transition+0x1e8>
    2c04:	00100513          	li	a0,1
    2c08:	00e82023          	sw	a4,0(a6)
    2c0c:	00008067          	ret
    2c10:	00164783          	lbu	a5,1(a2)
    2c14:	0e078863          	beqz	a5,2d04 <core_state_transition+0x2dc>
    2c18:	00260713          	addi	a4,a2,2
    2c1c:	0ea78463          	beq	a5,a0,2d04 <core_state_transition+0x2dc>
    2c20:	0185a683          	lw	a3,24(a1)
    2c24:	fd078793          	addi	a5,a5,-48
    2c28:	0ff7f793          	zext.b	a5,a5
    2c2c:	00168693          	addi	a3,a3,1
    2c30:	00900893          	li	a7,9
    2c34:	00d5ac23          	sw	a3,24(a1)
    2c38:	fcf8e6e3          	bltu	a7,a5,2c04 <core_state_transition+0x1dc>
    2c3c:	00264683          	lbu	a3,2(a2)
    2c40:	0a068e63          	beqz	a3,2cfc <core_state_transition+0x2d4>
    2c44:	00360793          	addi	a5,a2,3
    2c48:	0aa68863          	beq	a3,a0,2cf8 <core_state_transition+0x2d0>
    2c4c:	00900613          	li	a2,9
    2c50:	02c00893          	li	a7,44
    2c54:	fd068693          	addi	a3,a3,-48
    2c58:	0ff6f693          	zext.b	a3,a3
    2c5c:	00d67e63          	bgeu	a2,a3,2c78 <core_state_transition+0x250>
    2c60:	0045a683          	lw	a3,4(a1)
    2c64:	00078713          	mv	a4,a5
    2c68:	00100513          	li	a0,1
    2c6c:	00168793          	addi	a5,a3,1
    2c70:	00f5a223          	sw	a5,4(a1)
    2c74:	e1dff06f          	j	2a90 <core_state_transition+0x68>
    2c78:	00174683          	lbu	a3,1(a4)
    2c7c:	00178513          	addi	a0,a5,1
    2c80:	00078713          	mv	a4,a5
    2c84:	06068a63          	beqz	a3,2cf8 <core_state_transition+0x2d0>
    2c88:	0b168263          	beq	a3,a7,2d2c <core_state_transition+0x304>
    2c8c:	00050793          	mv	a5,a0
    2c90:	fc5ff06f          	j	2c54 <core_state_transition+0x22c>
    2c94:	0017c683          	lbu	a3,1(a5)
    2c98:	00160713          	addi	a4,a2,1
    2c9c:	00060793          	mv	a5,a2
    2ca0:	04068263          	beqz	a3,2ce4 <core_state_transition+0x2bc>
    2ca4:	06668c63          	beq	a3,t1,2d1c <core_state_transition+0x2f4>
    2ca8:	00070613          	mv	a2,a4
    2cac:	e6dff06f          	j	2b18 <core_state_transition+0xf0>
    2cb0:	0115a023          	sw	a7,0(a1)
    2cb4:	0017c683          	lbu	a3,1(a5)
    2cb8:	06068263          	beqz	a3,2d1c <core_state_transition+0x2f4>
    2cbc:	00278613          	addi	a2,a5,2
    2cc0:	02a68263          	beq	a3,a0,2ce4 <core_state_transition+0x2bc>
    2cc4:	00070793          	mv	a5,a4
    2cc8:	e45ff06f          	j	2b0c <core_state_transition+0xe4>
    2ccc:	00c5a423          	sw	a2,8(a1)
    2cd0:	0027c683          	lbu	a3,2(a5)
    2cd4:	04068463          	beqz	a3,2d1c <core_state_transition+0x2f4>
    2cd8:	02c00793          	li	a5,44
    2cdc:	00170613          	addi	a2,a4,1
    2ce0:	fef692e3          	bne	a3,a5,2cc4 <core_state_transition+0x29c>
    2ce4:	00060713          	mv	a4,a2
    2ce8:	00500513          	li	a0,5
    2cec:	da5ff06f          	j	2a90 <core_state_transition+0x68>
    2cf0:	00000513          	li	a0,0
    2cf4:	d9dff06f          	j	2a90 <core_state_transition+0x68>
    2cf8:	00078713          	mv	a4,a5
    2cfc:	00700513          	li	a0,7
    2d00:	d91ff06f          	j	2a90 <core_state_transition+0x68>
    2d04:	00600513          	li	a0,6
    2d08:	d89ff06f          	j	2a90 <core_state_transition+0x68>
    2d0c:	00060713          	mv	a4,a2
    2d10:	00300513          	li	a0,3
    2d14:	d7dff06f          	j	2a90 <core_state_transition+0x68>
    2d18:	00078713          	mv	a4,a5
    2d1c:	00500513          	li	a0,5
    2d20:	d71ff06f          	j	2a90 <core_state_transition+0x68>
    2d24:	00200513          	li	a0,2
    2d28:	d69ff06f          	j	2a90 <core_state_transition+0x68>
    2d2c:	00050713          	mv	a4,a0
    2d30:	00700513          	li	a0,7
    2d34:	d5dff06f          	j	2a90 <core_state_transition+0x68>
    2d38:	00060713          	mv	a4,a2
    2d3c:	00400513          	li	a0,4
    2d40:	d51ff06f          	j	2a90 <core_state_transition+0x68>

00002d44 <core_bench_state>:
    2d44:	f8010113          	addi	sp,sp,-128
    2d48:	06912a23          	sw	s1,116(sp)
    2d4c:	07312623          	sw	s3,108(sp)
    2d50:	01010493          	addi	s1,sp,16
    2d54:	03010993          	addi	s3,sp,48
    2d58:	06812c23          	sw	s0,120(sp)
    2d5c:	07212823          	sw	s2,112(sp)
    2d60:	07412423          	sw	s4,104(sp)
    2d64:	07512223          	sw	s5,100(sp)
    2d68:	07612023          	sw	s6,96(sp)
    2d6c:	05712e23          	sw	s7,92(sp)
    2d70:	00068a93          	mv	s5,a3
    2d74:	00070a13          	mv	s4,a4
    2d78:	00078913          	mv	s2,a5
    2d7c:	06112e23          	sw	ra,124(sp)
    2d80:	05812c23          	sw	s8,88(sp)
    2d84:	00058413          	mv	s0,a1
    2d88:	00050b93          	mv	s7,a0
    2d8c:	00060b13          	mv	s6,a2
    2d90:	00b12623          	sw	a1,12(sp)
    2d94:	05010693          	addi	a3,sp,80
    2d98:	00048713          	mv	a4,s1
    2d9c:	00098793          	mv	a5,s3
    2da0:	0007a023          	sw	zero,0(a5)
    2da4:	00072023          	sw	zero,0(a4)
    2da8:	00478793          	addi	a5,a5,4
    2dac:	00470713          	addi	a4,a4,4
    2db0:	fed798e3          	bne	a5,a3,2da0 <core_bench_state+0x5c>
    2db4:	00044703          	lbu	a4,0(s0)
    2db8:	12070e63          	beqz	a4,2ef4 <core_bench_state+0x1b0>
    2dbc:	00c10c13          	addi	s8,sp,12
    2dc0:	03010593          	addi	a1,sp,48
    2dc4:	000c0513          	mv	a0,s8
    2dc8:	c61ff0ef          	jal	ra,2a28 <core_state_transition>
    2dcc:	05010793          	addi	a5,sp,80
    2dd0:	00251813          	slli	a6,a0,0x2
    2dd4:	01078833          	add	a6,a5,a6
    2dd8:	00c12703          	lw	a4,12(sp)
    2ddc:	fc082783          	lw	a5,-64(a6)
    2de0:	00074703          	lbu	a4,0(a4)
    2de4:	00178793          	addi	a5,a5,1
    2de8:	fcf82023          	sw	a5,-64(a6)
    2dec:	fc071ae3          	bnez	a4,2dc0 <core_bench_state+0x7c>
    2df0:	00812623          	sw	s0,12(sp)
    2df4:	01740bb3          	add	s7,s0,s7
    2df8:	00044703          	lbu	a4,0(s0)
    2dfc:	11747463          	bgeu	s0,s7,2f04 <core_bench_state+0x1c0>
    2e00:	00040793          	mv	a5,s0
    2e04:	02c00613          	li	a2,44
    2e08:	0080006f          	j	2e10 <core_bench_state+0xcc>
    2e0c:	0007c703          	lbu	a4,0(a5)
    2e10:	016746b3          	xor	a3,a4,s6
    2e14:	00c70463          	beq	a4,a2,2e1c <core_bench_state+0xd8>
    2e18:	00d78023          	sb	a3,0(a5)
    2e1c:	00c12783          	lw	a5,12(sp)
    2e20:	014787b3          	add	a5,a5,s4
    2e24:	00f12623          	sw	a5,12(sp)
    2e28:	ff77e2e3          	bltu	a5,s7,2e0c <core_bench_state+0xc8>
    2e2c:	00044783          	lbu	a5,0(s0)
    2e30:	00812623          	sw	s0,12(sp)
    2e34:	00c10c13          	addi	s8,sp,12
    2e38:	02078e63          	beqz	a5,2e74 <core_bench_state+0x130>
    2e3c:	03010593          	addi	a1,sp,48
    2e40:	000c0513          	mv	a0,s8
    2e44:	be5ff0ef          	jal	ra,2a28 <core_state_transition>
    2e48:	05010793          	addi	a5,sp,80
    2e4c:	00251613          	slli	a2,a0,0x2
    2e50:	00c78633          	add	a2,a5,a2
    2e54:	00c12703          	lw	a4,12(sp)
    2e58:	fc062783          	lw	a5,-64(a2)
    2e5c:	00074703          	lbu	a4,0(a4)
    2e60:	00178793          	addi	a5,a5,1
    2e64:	fcf62023          	sw	a5,-64(a2)
    2e68:	fc071ae3          	bnez	a4,2e3c <core_bench_state+0xf8>
    2e6c:	00812623          	sw	s0,12(sp)
    2e70:	03747463          	bgeu	s0,s7,2e98 <core_bench_state+0x154>
    2e74:	02c00693          	li	a3,44
    2e78:	00044783          	lbu	a5,0(s0)
    2e7c:	0157c733          	xor	a4,a5,s5
    2e80:	00d78463          	beq	a5,a3,2e88 <core_bench_state+0x144>
    2e84:	00e40023          	sb	a4,0(s0)
    2e88:	00c12403          	lw	s0,12(sp)
    2e8c:	01440433          	add	s0,s0,s4
    2e90:	00812623          	sw	s0,12(sp)
    2e94:	ff7462e3          	bltu	s0,s7,2e78 <core_bench_state+0x134>
    2e98:	02048413          	addi	s0,s1,32
    2e9c:	0004a503          	lw	a0,0(s1)
    2ea0:	00090593          	mv	a1,s2
    2ea4:	00448493          	addi	s1,s1,4
    2ea8:	bb9fe0ef          	jal	ra,1a60 <crcu32>
    2eac:	00050593          	mv	a1,a0
    2eb0:	0009a503          	lw	a0,0(s3)
    2eb4:	00498993          	addi	s3,s3,4
    2eb8:	ba9fe0ef          	jal	ra,1a60 <crcu32>
    2ebc:	00050913          	mv	s2,a0
    2ec0:	fc941ee3          	bne	s0,s1,2e9c <core_bench_state+0x158>
    2ec4:	07c12083          	lw	ra,124(sp)
    2ec8:	07812403          	lw	s0,120(sp)
    2ecc:	07412483          	lw	s1,116(sp)
    2ed0:	07012903          	lw	s2,112(sp)
    2ed4:	06c12983          	lw	s3,108(sp)
    2ed8:	06812a03          	lw	s4,104(sp)
    2edc:	06412a83          	lw	s5,100(sp)
    2ee0:	06012b03          	lw	s6,96(sp)
    2ee4:	05c12b83          	lw	s7,92(sp)
    2ee8:	05812c03          	lw	s8,88(sp)
    2eec:	08010113          	addi	sp,sp,128
    2ef0:	00008067          	ret
    2ef4:	00812623          	sw	s0,12(sp)
    2ef8:	01740bb3          	add	s7,s0,s7
    2efc:	f17462e3          	bltu	s0,s7,2e00 <core_bench_state+0xbc>
    2f00:	f99ff06f          	j	2e98 <core_bench_state+0x154>
    2f04:	f2071ce3          	bnez	a4,2e3c <core_bench_state+0xf8>
    2f08:	f91ff06f          	j	2e98 <core_bench_state+0x154>

00002f0c <crt0>:
    2f0c:	ff010113          	addi	sp,sp,-16
    2f10:	00112623          	sw	ra,12(sp)
    2f14:	000092b7          	lui	t0,0x9
    2f18:	9622aa23          	sw	sp,-1676(t0) # 8974 <sp_store>
    2f1c:	000092b7          	lui	t0,0x9
    2f20:	9302a103          	lw	sp,-1744(t0) # 8930 <stack_top>
    2f24:	964fe0ef          	jal	ra,1088 <main>
    2f28:	000092b7          	lui	t0,0x9
    2f2c:	9742a103          	lw	sp,-1676(t0) # 8974 <sp_store>
    2f30:	00c12083          	lw	ra,12(sp)
    2f34:	01010113          	addi	sp,sp,16
    2f38:	00008067          	ret

00002f3c <getchar>:
    2f3c:	ff010113          	addi	sp,sp,-16
    2f40:	00112623          	sw	ra,12(sp)
    2f44:	569000ef          	jal	ra,3cac <inbyte>
    2f48:	00c12083          	lw	ra,12(sp)
    2f4c:	01010113          	addi	sp,sp,16
    2f50:	00008067          	ret

00002f54 <putchar>:
    2f54:	ff010113          	addi	sp,sp,-16
    2f58:	00812423          	sw	s0,8(sp)
    2f5c:	00050413          	mv	s0,a0
    2f60:	0ff57513          	zext.b	a0,a0
    2f64:	00112623          	sw	ra,12(sp)
    2f68:	561000ef          	jal	ra,3cc8 <outbyte>
    2f6c:	00c12083          	lw	ra,12(sp)
    2f70:	00040513          	mv	a0,s0
    2f74:	00812403          	lw	s0,8(sp)
    2f78:	01010113          	addi	sp,sp,16
    2f7c:	00008067          	ret

00002f80 <fputs>:
    2f80:	000097b7          	lui	a5,0x9
    2f84:	9387a783          	lw	a5,-1736(a5) # 8938 <stdout>
    2f88:	ff010113          	addi	sp,sp,-16
    2f8c:	00112623          	sw	ra,12(sp)
    2f90:	00812423          	sw	s0,8(sp)
    2f94:	02b78a63          	beq	a5,a1,2fc8 <fputs+0x48>
    2f98:	000097b7          	lui	a5,0x9
    2f9c:	93c7a583          	lw	a1,-1732(a5) # 893c <stdin>
    2fa0:	00008537          	lui	a0,0x8
    2fa4:	5dc50513          	addi	a0,a0,1500 # 85dc <errpat+0x10>
    2fa8:	fd9ff0ef          	jal	ra,2f80 <fputs>
    2fac:	00a00513          	li	a0,10
    2fb0:	519000ef          	jal	ra,3cc8 <outbyte>
    2fb4:	00c12083          	lw	ra,12(sp)
    2fb8:	00812403          	lw	s0,8(sp)
    2fbc:	00a00513          	li	a0,10
    2fc0:	01010113          	addi	sp,sp,16
    2fc4:	00008067          	ret
    2fc8:	00050413          	mv	s0,a0
    2fcc:	00054503          	lbu	a0,0(a0)
    2fd0:	fc050ee3          	beqz	a0,2fac <fputs+0x2c>
    2fd4:	00140413          	addi	s0,s0,1
    2fd8:	4f1000ef          	jal	ra,3cc8 <outbyte>
    2fdc:	00044503          	lbu	a0,0(s0)
    2fe0:	fe051ae3          	bnez	a0,2fd4 <fputs+0x54>
    2fe4:	00a00513          	li	a0,10
    2fe8:	4e1000ef          	jal	ra,3cc8 <outbyte>
    2fec:	00c12083          	lw	ra,12(sp)
    2ff0:	00812403          	lw	s0,8(sp)
    2ff4:	00a00513          	li	a0,10
    2ff8:	01010113          	addi	sp,sp,16
    2ffc:	00008067          	ret

00003000 <fgets>:
    3000:	000097b7          	lui	a5,0x9
    3004:	93c7a783          	lw	a5,-1732(a5) # 893c <stdin>
    3008:	fe010113          	addi	sp,sp,-32
    300c:	00112e23          	sw	ra,28(sp)
    3010:	00812c23          	sw	s0,24(sp)
    3014:	00912a23          	sw	s1,20(sp)
    3018:	01212823          	sw	s2,16(sp)
    301c:	01312623          	sw	s3,12(sp)
    3020:	01412423          	sw	s4,8(sp)
    3024:	06c79663          	bne	a5,a2,3090 <fgets+0x90>
    3028:	00050493          	mv	s1,a0
    302c:	00050413          	mv	s0,a0
    3030:	00a00913          	li	s2,10
    3034:	00d00993          	li	s3,13
    3038:	00b50a33          	add	s4,a0,a1
    303c:	00059c63          	bnez	a1,3054 <fgets+0x54>
    3040:	0200006f          	j	3060 <fgets+0x60>
    3044:	01350e63          	beq	a0,s3,3060 <fgets+0x60>
    3048:	00140413          	addi	s0,s0,1
    304c:	47d000ef          	jal	ra,3cc8 <outbyte>
    3050:	01440863          	beq	s0,s4,3060 <fgets+0x60>
    3054:	459000ef          	jal	ra,3cac <inbyte>
    3058:	00a40023          	sb	a0,0(s0)
    305c:	ff2514e3          	bne	a0,s2,3044 <fgets+0x44>
    3060:	00a00513          	li	a0,10
    3064:	465000ef          	jal	ra,3cc8 <outbyte>
    3068:	00040023          	sb	zero,0(s0)
    306c:	01c12083          	lw	ra,28(sp)
    3070:	01812403          	lw	s0,24(sp)
    3074:	01012903          	lw	s2,16(sp)
    3078:	00c12983          	lw	s3,12(sp)
    307c:	00812a03          	lw	s4,8(sp)
    3080:	00048513          	mv	a0,s1
    3084:	01412483          	lw	s1,20(sp)
    3088:	02010113          	addi	sp,sp,32
    308c:	00008067          	ret
    3090:	00008537          	lui	a0,0x8
    3094:	00078593          	mv	a1,a5
    3098:	60850513          	addi	a0,a0,1544 # 8608 <errpat+0x3c>
    309c:	ee5ff0ef          	jal	ra,2f80 <fputs>
    30a0:	01c12083          	lw	ra,28(sp)
    30a4:	01812403          	lw	s0,24(sp)
    30a8:	01412483          	lw	s1,20(sp)
    30ac:	01012903          	lw	s2,16(sp)
    30b0:	00c12983          	lw	s3,12(sp)
    30b4:	00812a03          	lw	s4,8(sp)
    30b8:	00000513          	li	a0,0
    30bc:	02010113          	addi	sp,sp,32
    30c0:	00008067          	ret

000030c4 <putd>:
    30c4:	0a050e63          	beqz	a0,3180 <putd+0xbc>
    30c8:	fe010113          	addi	sp,sp,-32
    30cc:	01212823          	sw	s2,16(sp)
    30d0:	01512223          	sw	s5,4(sp)
    30d4:	00112e23          	sw	ra,28(sp)
    30d8:	00812c23          	sw	s0,24(sp)
    30dc:	00912a23          	sw	s1,20(sp)
    30e0:	01312623          	sw	s3,12(sp)
    30e4:	01412423          	sw	s4,8(sp)
    30e8:	00050913          	mv	s2,a0
    30ec:	00058a93          	mv	s5,a1
    30f0:	06060e63          	beqz	a2,316c <putd+0xa8>
    30f4:	3b9ad437          	lui	s0,0x3b9ad
    30f8:	00a00493          	li	s1,10
    30fc:	00100a13          	li	s4,1
    3100:	a0040413          	addi	s0,s0,-1536 # 3b9aca00 <__heap_start+0x3b9a0080>
    3104:	00a00993          	li	s3,10
    3108:	0200006f          	j	3128 <putd+0x64>
    310c:	02e97933          	remu	s2,s2,a4
    3110:	00000a13          	li	s4,0
    3114:	03078793          	addi	a5,a5,48
    3118:	0ff7f513          	zext.b	a0,a5
    311c:	fff48493          	addi	s1,s1,-1
    3120:	3a9000ef          	jal	ra,3cc8 <outbyte>
    3124:	02048263          	beqz	s1,3148 <putd+0x84>
    3128:	00040713          	mv	a4,s0
    312c:	028957b3          	divu	a5,s2,s0
    3130:	03345433          	divu	s0,s0,s3
    3134:	fc079ce3          	bnez	a5,310c <putd+0x48>
    3138:	fc0a0ee3          	beqz	s4,3114 <putd+0x50>
    313c:	fc0a9ce3          	bnez	s5,3114 <putd+0x50>
    3140:	fff48493          	addi	s1,s1,-1
    3144:	fe0492e3          	bnez	s1,3128 <putd+0x64>
    3148:	01c12083          	lw	ra,28(sp)
    314c:	01812403          	lw	s0,24(sp)
    3150:	01412483          	lw	s1,20(sp)
    3154:	01012903          	lw	s2,16(sp)
    3158:	00c12983          	lw	s3,12(sp)
    315c:	00812a03          	lw	s4,8(sp)
    3160:	00412a83          	lw	s5,4(sp)
    3164:	02010113          	addi	sp,sp,32
    3168:	00008067          	ret
    316c:	f80554e3          	bgez	a0,30f4 <putd+0x30>
    3170:	02d00513          	li	a0,45
    3174:	41200933          	neg	s2,s2
    3178:	351000ef          	jal	ra,3cc8 <outbyte>
    317c:	f79ff06f          	j	30f4 <putd+0x30>
    3180:	03000513          	li	a0,48
    3184:	3450006f          	j	3cc8 <outbyte>

00003188 <putx>:
    3188:	fd010113          	addi	sp,sp,-48
    318c:	01f5d793          	srli	a5,a1,0x1f
    3190:	03212023          	sw	s2,32(sp)
    3194:	00f58933          	add	s2,a1,a5
    3198:	00197913          	andi	s2,s2,1
    319c:	40f90933          	sub	s2,s2,a5
    31a0:	000087b7          	lui	a5,0x8
    31a4:	63478793          	addi	a5,a5,1588 # 8634 <errpat+0x68>
    31a8:	00f12423          	sw	a5,8(sp)
    31ac:	000087b7          	lui	a5,0x8
    31b0:	64878793          	addi	a5,a5,1608 # 8648 <errpat+0x7c>
    31b4:	00291913          	slli	s2,s2,0x2
    31b8:	00f12623          	sw	a5,12(sp)
    31bc:	01010793          	addi	a5,sp,16
    31c0:	02812423          	sw	s0,40(sp)
    31c4:	02912223          	sw	s1,36(sp)
    31c8:	01312e23          	sw	s3,28(sp)
    31cc:	01412c23          	sw	s4,24(sp)
    31d0:	01512a23          	sw	s5,20(sp)
    31d4:	01612823          	sw	s6,16(sp)
    31d8:	02112623          	sw	ra,44(sp)
    31dc:	00050493          	mv	s1,a0
    31e0:	00060a93          	mv	s5,a2
    31e4:	01c00413          	li	s0,28
    31e8:	00100a13          	li	s4,1
    31ec:	01278933          	add	s2,a5,s2
    31f0:	02000b13          	li	s6,32
    31f4:	ffc00993          	li	s3,-4
    31f8:	0240006f          	j	321c <putx+0x94>
    31fc:	00f6d4b3          	srl	s1,a3,a5
    3200:	00000a13          	li	s4,0
    3204:	ff892783          	lw	a5,-8(s2)
    3208:	ffc40413          	addi	s0,s0,-4
    320c:	00e787b3          	add	a5,a5,a4
    3210:	0007c503          	lbu	a0,0(a5)
    3214:	2b5000ef          	jal	ra,3cc8 <outbyte>
    3218:	03340263          	beq	s0,s3,323c <putx+0xb4>
    321c:	408b07b3          	sub	a5,s6,s0
    3220:	0084d733          	srl	a4,s1,s0
    3224:	00f496b3          	sll	a3,s1,a5
    3228:	fc071ae3          	bnez	a4,31fc <putx+0x74>
    322c:	fc0a0ce3          	beqz	s4,3204 <putx+0x7c>
    3230:	fc0a9ae3          	bnez	s5,3204 <putx+0x7c>
    3234:	ffc40413          	addi	s0,s0,-4
    3238:	ff3412e3          	bne	s0,s3,321c <putx+0x94>
    323c:	02c12083          	lw	ra,44(sp)
    3240:	02812403          	lw	s0,40(sp)
    3244:	02412483          	lw	s1,36(sp)
    3248:	02012903          	lw	s2,32(sp)
    324c:	01c12983          	lw	s3,28(sp)
    3250:	01812a03          	lw	s4,24(sp)
    3254:	01412a83          	lw	s5,20(sp)
    3258:	01012b03          	lw	s6,16(sp)
    325c:	03010113          	addi	sp,sp,48
    3260:	00008067          	ret

00003264 <putf>:
    3264:	fd010113          	addi	sp,sp,-48
    3268:	01612823          	sw	s6,16(sp)
    326c:	01712623          	sw	s7,12(sp)
    3270:	02112623          	sw	ra,44(sp)
    3274:	02812423          	sw	s0,40(sp)
    3278:	02912223          	sw	s1,36(sp)
    327c:	03212023          	sw	s2,32(sp)
    3280:	01312e23          	sw	s3,28(sp)
    3284:	01412c23          	sw	s4,24(sp)
    3288:	01512a23          	sw	s5,20(sp)
    328c:	00050b93          	mv	s7,a0
    3290:	00058b13          	mv	s6,a1
    3294:	18c05a63          	blez	a2,3428 <putf+0x1c4>
    3298:	000097b7          	lui	a5,0x9
    329c:	9187a483          	lw	s1,-1768(a5) # 8918 <__clz_tab+0x118>
    32a0:	91c7a403          	lw	s0,-1764(a5)
    32a4:	000097b7          	lui	a5,0x9
    32a8:	9087a903          	lw	s2,-1784(a5) # 8908 <__clz_tab+0x108>
    32ac:	90c7a983          	lw	s3,-1780(a5)
    32b0:	00060a93          	mv	s5,a2
    32b4:	00000a13          	li	s4,0
    32b8:	00048513          	mv	a0,s1
    32bc:	00040593          	mv	a1,s0
    32c0:	00090613          	mv	a2,s2
    32c4:	00098693          	mv	a3,s3
    32c8:	694010ef          	jal	ra,495c <__divdf3>
    32cc:	001a0a13          	addi	s4,s4,1 # fffff001 <__heap_start+0xffff2681>
    32d0:	00050493          	mv	s1,a0
    32d4:	00058413          	mv	s0,a1
    32d8:	ff4a90e3          	bne	s5,s4,32b8 <putf+0x54>
    32dc:	000b8513          	mv	a0,s7
    32e0:	000b0593          	mv	a1,s6
    32e4:	00000613          	li	a2,0
    32e8:	00000693          	li	a3,0
    32ec:	635010ef          	jal	ra,5120 <__ledf2>
    32f0:	10054c63          	bltz	a0,3408 <putf+0x1a4>
    32f4:	00048613          	mv	a2,s1
    32f8:	000b8513          	mv	a0,s7
    32fc:	00040693          	mv	a3,s0
    3300:	000b0593          	mv	a1,s6
    3304:	681000ef          	jal	ra,4184 <__adddf3>
    3308:	00058413          	mv	s0,a1
    330c:	00050493          	mv	s1,a0
    3310:	4a9020ef          	jal	ra,5fb8 <__fixdfsi>
    3314:	00050993          	mv	s3,a0
    3318:	59d020ef          	jal	ra,60b4 <__floatsidf>
    331c:	00050613          	mv	a2,a0
    3320:	00058693          	mv	a3,a1
    3324:	00048513          	mv	a0,s1
    3328:	00040593          	mv	a1,s0
    332c:	4a0020ef          	jal	ra,57cc <__subdf3>
    3330:	00050b13          	mv	s6,a0
    3334:	00058913          	mv	s2,a1
    3338:	00100413          	li	s0,1
    333c:	00000493          	li	s1,0
    3340:	00241793          	slli	a5,s0,0x2
    3344:	00878433          	add	s0,a5,s0
    3348:	00048a13          	mv	s4,s1
    334c:	00148493          	addi	s1,s1,1
    3350:	00141413          	slli	s0,s0,0x1
    3354:	fe9a96e3          	bne	s5,s1,3340 <putf+0xdc>
    3358:	00040513          	mv	a0,s0
    335c:	559020ef          	jal	ra,60b4 <__floatsidf>
    3360:	00090693          	mv	a3,s2
    3364:	000b0613          	mv	a2,s6
    3368:	69d010ef          	jal	ra,5204 <__muldf3>
    336c:	44d020ef          	jal	ra,5fb8 <__fixdfsi>
    3370:	028547b3          	div	a5,a0,s0
    3374:	00050913          	mv	s2,a0
    3378:	10079863          	bnez	a5,3488 <putf+0x224>
    337c:	00048793          	mv	a5,s1
    3380:	00a00693          	li	a3,10
    3384:	00c0006f          	j	3390 <putf+0x12c>
    3388:	02894733          	div	a4,s2,s0
    338c:	06071863          	bnez	a4,33fc <putf+0x198>
    3390:	fff78793          	addi	a5,a5,-1
    3394:	02d44433          	div	s0,s0,a3
    3398:	fe0798e3          	bnez	a5,3388 <putf+0x124>
    339c:	04098a63          	beqz	s3,33f0 <putf+0x18c>
    33a0:	00100613          	li	a2,1
    33a4:	00000593          	li	a1,0
    33a8:	00098513          	mv	a0,s3
    33ac:	d19ff0ef          	jal	ra,30c4 <putd>
    33b0:	02e00513          	li	a0,46
    33b4:	115000ef          	jal	ra,3cc8 <outbyte>
    33b8:	02812403          	lw	s0,40(sp)
    33bc:	02c12083          	lw	ra,44(sp)
    33c0:	02412483          	lw	s1,36(sp)
    33c4:	01c12983          	lw	s3,28(sp)
    33c8:	01412a83          	lw	s5,20(sp)
    33cc:	01012b03          	lw	s6,16(sp)
    33d0:	00c12b83          	lw	s7,12(sp)
    33d4:	000a0593          	mv	a1,s4
    33d8:	00090513          	mv	a0,s2
    33dc:	01812a03          	lw	s4,24(sp)
    33e0:	02012903          	lw	s2,32(sp)
    33e4:	00100613          	li	a2,1
    33e8:	03010113          	addi	sp,sp,48
    33ec:	cd9ff06f          	j	30c4 <putd>
    33f0:	03000513          	li	a0,48
    33f4:	0d5000ef          	jal	ra,3cc8 <outbyte>
    33f8:	fb9ff06f          	j	33b0 <putf+0x14c>
    33fc:	40f484b3          	sub	s1,s1,a5
    3400:	fff48a13          	addi	s4,s1,-1
    3404:	f99ff06f          	j	339c <putf+0x138>
    3408:	02d00513          	li	a0,45
    340c:	0bd000ef          	jal	ra,3cc8 <outbyte>
    3410:	000b8613          	mv	a2,s7
    3414:	00048513          	mv	a0,s1
    3418:	000b0693          	mv	a3,s6
    341c:	00040593          	mv	a1,s0
    3420:	3ac020ef          	jal	ra,57cc <__subdf3>
    3424:	ee5ff06f          	j	3308 <putf+0xa4>
    3428:	00000613          	li	a2,0
    342c:	00000693          	li	a3,0
    3430:	4f1010ef          	jal	ra,5120 <__ledf2>
    3434:	04054e63          	bltz	a0,3490 <putf+0x22c>
    3438:	000097b7          	lui	a5,0x9
    343c:	9187a603          	lw	a2,-1768(a5) # 8918 <__clz_tab+0x118>
    3440:	91c7a683          	lw	a3,-1764(a5)
    3444:	000b8513          	mv	a0,s7
    3448:	000b0593          	mv	a1,s6
    344c:	539000ef          	jal	ra,4184 <__adddf3>
    3450:	00058413          	mv	s0,a1
    3454:	00050493          	mv	s1,a0
    3458:	361020ef          	jal	ra,5fb8 <__fixdfsi>
    345c:	00050993          	mv	s3,a0
    3460:	455020ef          	jal	ra,60b4 <__floatsidf>
    3464:	00050613          	mv	a2,a0
    3468:	00058693          	mv	a3,a1
    346c:	00048513          	mv	a0,s1
    3470:	00040593          	mv	a1,s0
    3474:	358020ef          	jal	ra,57cc <__subdf3>
    3478:	341020ef          	jal	ra,5fb8 <__fixdfsi>
    347c:	00050913          	mv	s2,a0
    3480:	fff00a13          	li	s4,-1
    3484:	f19ff06f          	j	339c <putf+0x138>
    3488:	fff00a13          	li	s4,-1
    348c:	f11ff06f          	j	339c <putf+0x138>
    3490:	02d00513          	li	a0,45
    3494:	035000ef          	jal	ra,3cc8 <outbyte>
    3498:	000097b7          	lui	a5,0x9
    349c:	9187a503          	lw	a0,-1768(a5) # 8918 <__clz_tab+0x118>
    34a0:	91c7a583          	lw	a1,-1764(a5)
    34a4:	000b8613          	mv	a2,s7
    34a8:	000b0693          	mv	a3,s6
    34ac:	320020ef          	jal	ra,57cc <__subdf3>
    34b0:	fa1ff06f          	j	3450 <putf+0x1ec>

000034b4 <printf>:
    34b4:	f8010113          	addi	sp,sp,-128
    34b8:	03b12623          	sw	s11,44(sp)
    34bc:	06f12a23          	sw	a5,116(sp)
    34c0:	04112e23          	sw	ra,92(sp)
    34c4:	04812c23          	sw	s0,88(sp)
    34c8:	04912a23          	sw	s1,84(sp)
    34cc:	05212823          	sw	s2,80(sp)
    34d0:	05312623          	sw	s3,76(sp)
    34d4:	05412423          	sw	s4,72(sp)
    34d8:	05512223          	sw	s5,68(sp)
    34dc:	05612023          	sw	s6,64(sp)
    34e0:	03712e23          	sw	s7,60(sp)
    34e4:	03812c23          	sw	s8,56(sp)
    34e8:	03912a23          	sw	s9,52(sp)
    34ec:	03a12823          	sw	s10,48(sp)
    34f0:	06b12223          	sw	a1,100(sp)
    34f4:	06c12423          	sw	a2,104(sp)
    34f8:	06d12623          	sw	a3,108(sp)
    34fc:	06e12823          	sw	a4,112(sp)
    3500:	07012c23          	sw	a6,120(sp)
    3504:	07112e23          	sw	a7,124(sp)
    3508:	06410793          	addi	a5,sp,100
    350c:	00050d93          	mv	s11,a0
    3510:	00054503          	lbu	a0,0(a0)
    3514:	00f12e23          	sw	a5,28(sp)
    3518:	00600793          	li	a5,6
    351c:	00f12623          	sw	a5,12(sp)
    3520:	12050063          	beqz	a0,3640 <printf+0x18c>
    3524:	00008937          	lui	s2,0x8
    3528:	00000c93          	li	s9,0
    352c:	00000d13          	li	s10,0
    3530:	02500493          	li	s1,37
    3534:	03000b93          	li	s7,48
    3538:	07500b13          	li	s6,117
    353c:	06c00a93          	li	s5,108
    3540:	02e00a13          	li	s4,46
    3544:	02000993          	li	s3,32
    3548:	65c90913          	addi	s2,s2,1628 # 865c <errpat+0x90>
    354c:	01c0006f          	j	3568 <printf+0xb4>
    3550:	778000ef          	jal	ra,3cc8 <outbyte>
    3554:	00040793          	mv	a5,s0
    3558:	000d8413          	mv	s0,s11
    355c:	00078d93          	mv	s11,a5
    3560:	00144503          	lbu	a0,1(s0)
    3564:	0c050e63          	beqz	a0,3640 <printf+0x18c>
    3568:	001d8413          	addi	s0,s11,1
    356c:	fe9512e3          	bne	a0,s1,3550 <printf+0x9c>
    3570:	001dc703          	lbu	a4,1(s11)
    3574:	11770663          	beq	a4,s7,3680 <printf+0x1cc>
    3578:	fd070793          	addi	a5,a4,-48
    357c:	0ff7f793          	zext.b	a5,a5
    3580:	00900693          	li	a3,9
    3584:	00f6ee63          	bltu	a3,a5,35a0 <printf+0xec>
    3588:	00900693          	li	a3,9
    358c:	00144703          	lbu	a4,1(s0)
    3590:	00140413          	addi	s0,s0,1
    3594:	fd070793          	addi	a5,a4,-48
    3598:	0ff7f793          	zext.b	a5,a5
    359c:	fef6f8e3          	bgeu	a3,a5,358c <printf+0xd8>
    35a0:	01671663          	bne	a4,s6,35ac <printf+0xf8>
    35a4:	00140413          	addi	s0,s0,1
    35a8:	00100d13          	li	s10,1
    35ac:	00044503          	lbu	a0,0(s0)
    35b0:	03550463          	beq	a0,s5,35d8 <printf+0x124>
    35b4:	03450863          	beq	a0,s4,35e4 <printf+0x130>
    35b8:	fa850793          	addi	a5,a0,-88
    35bc:	0ff7f793          	zext.b	a5,a5
    35c0:	00140d93          	addi	s11,s0,1
    35c4:	06f9e863          	bltu	s3,a5,3634 <printf+0x180>
    35c8:	00279793          	slli	a5,a5,0x2
    35cc:	012787b3          	add	a5,a5,s2
    35d0:	0007a783          	lw	a5,0(a5)
    35d4:	00078067          	jr	a5
    35d8:	00144503          	lbu	a0,1(s0)
    35dc:	00140413          	addi	s0,s0,1
    35e0:	fd451ce3          	bne	a0,s4,35b8 <printf+0x104>
    35e4:	00144c03          	lbu	s8,1(s0)
    35e8:	00a00693          	li	a3,10
    35ec:	00244503          	lbu	a0,2(s0)
    35f0:	fd0c0c13          	addi	s8,s8,-48
    35f4:	02dc66b3          	rem	a3,s8,a3
    35f8:	fd050793          	addi	a5,a0,-48
    35fc:	0ff7f793          	zext.b	a5,a5
    3600:	00900713          	li	a4,9
    3604:	00240413          	addi	s0,s0,2
    3608:	00d12623          	sw	a3,12(sp)
    360c:	faf766e3          	bltu	a4,a5,35b8 <printf+0x104>
    3610:	00144503          	lbu	a0,1(s0)
    3614:	00140413          	addi	s0,s0,1
    3618:	fd050793          	addi	a5,a0,-48
    361c:	0ff7f793          	zext.b	a5,a5
    3620:	fef778e3          	bgeu	a4,a5,3610 <printf+0x15c>
    3624:	fa850793          	addi	a5,a0,-88
    3628:	0ff7f793          	zext.b	a5,a5
    362c:	00140d93          	addi	s11,s0,1
    3630:	f8f9fce3          	bgeu	s3,a5,35c8 <printf+0x114>
    3634:	694000ef          	jal	ra,3cc8 <outbyte>
    3638:	00144503          	lbu	a0,1(s0)
    363c:	f20516e3          	bnez	a0,3568 <printf+0xb4>
    3640:	05c12083          	lw	ra,92(sp)
    3644:	05812403          	lw	s0,88(sp)
    3648:	05412483          	lw	s1,84(sp)
    364c:	05012903          	lw	s2,80(sp)
    3650:	04c12983          	lw	s3,76(sp)
    3654:	04812a03          	lw	s4,72(sp)
    3658:	04412a83          	lw	s5,68(sp)
    365c:	04012b03          	lw	s6,64(sp)
    3660:	03c12b83          	lw	s7,60(sp)
    3664:	03812c03          	lw	s8,56(sp)
    3668:	03412c83          	lw	s9,52(sp)
    366c:	03012d03          	lw	s10,48(sp)
    3670:	02c12d83          	lw	s11,44(sp)
    3674:	00000513          	li	a0,0
    3678:	08010113          	addi	sp,sp,128
    367c:	00008067          	ret
    3680:	00100c93          	li	s9,1
    3684:	f05ff06f          	j	3588 <printf+0xd4>
    3688:	01c12783          	lw	a5,28(sp)
    368c:	000c8613          	mv	a2,s9
    3690:	00000593          	li	a1,0
    3694:	0007a503          	lw	a0,0(a5)
    3698:	00478793          	addi	a5,a5,4
    369c:	00f12e23          	sw	a5,28(sp)
    36a0:	ae9ff0ef          	jal	ra,3188 <putx>
    36a4:	ebdff06f          	j	3560 <printf+0xac>
    36a8:	01c12703          	lw	a4,28(sp)
    36ac:	00072c03          	lw	s8,0(a4)
    36b0:	00470713          	addi	a4,a4,4
    36b4:	00e12e23          	sw	a4,28(sp)
    36b8:	000c4503          	lbu	a0,0(s8)
    36bc:	ea0502e3          	beqz	a0,3560 <printf+0xac>
    36c0:	001c0c13          	addi	s8,s8,1
    36c4:	604000ef          	jal	ra,3cc8 <outbyte>
    36c8:	000c4503          	lbu	a0,0(s8)
    36cc:	fe051ae3          	bnez	a0,36c0 <printf+0x20c>
    36d0:	e91ff06f          	j	3560 <printf+0xac>
    36d4:	01c12783          	lw	a5,28(sp)
    36d8:	00c12603          	lw	a2,12(sp)
    36dc:	00778793          	addi	a5,a5,7
    36e0:	ff87f793          	andi	a5,a5,-8
    36e4:	0007a503          	lw	a0,0(a5)
    36e8:	0047a583          	lw	a1,4(a5)
    36ec:	00878793          	addi	a5,a5,8
    36f0:	00f12e23          	sw	a5,28(sp)
    36f4:	b71ff0ef          	jal	ra,3264 <putf>
    36f8:	e69ff06f          	j	3560 <printf+0xac>
    36fc:	01c12783          	lw	a5,28(sp)
    3700:	000d0613          	mv	a2,s10
    3704:	00000593          	li	a1,0
    3708:	0007a503          	lw	a0,0(a5)
    370c:	00478793          	addi	a5,a5,4
    3710:	00f12e23          	sw	a5,28(sp)
    3714:	9b1ff0ef          	jal	ra,30c4 <putd>
    3718:	e49ff06f          	j	3560 <printf+0xac>
    371c:	01c12783          	lw	a5,28(sp)
    3720:	000c8613          	mv	a2,s9
    3724:	00100593          	li	a1,1
    3728:	0007a503          	lw	a0,0(a5)
    372c:	00478793          	addi	a5,a5,4
    3730:	00f12e23          	sw	a5,28(sp)
    3734:	a55ff0ef          	jal	ra,3188 <putx>
    3738:	e29ff06f          	j	3560 <printf+0xac>

0000373c <exit>:
    373c:	fe010113          	addi	sp,sp,-32
    3740:	00112e23          	sw	ra,28(sp)
    3744:	00812c23          	sw	s0,24(sp)
    3748:	02010413          	addi	s0,sp,32
    374c:	fea42623          	sw	a0,-20(s0)
    3750:	000087b7          	lui	a5,0x8
    3754:	6e078513          	addi	a0,a5,1760 # 86e0 <errpat+0x114>
    3758:	d5dff0ef          	jal	ra,34b4 <printf>
    375c:	fec42583          	lw	a1,-20(s0)
    3760:	000087b7          	lui	a5,0x8
    3764:	72c78513          	addi	a0,a5,1836 # 872c <errpat+0x160>
    3768:	d4dff0ef          	jal	ra,34b4 <printf>
    376c:	000087b7          	lui	a5,0x8
    3770:	75078513          	addi	a0,a5,1872 # 8750 <errpat+0x184>
    3774:	d41ff0ef          	jal	ra,34b4 <printf>
    3778:	00300513          	li	a0,3
    377c:	fd8ff0ef          	jal	ra,2f54 <putchar>
    3780:	0000006f          	j	3780 <exit+0x44>

00003784 <malloc>:
    3784:	000098b7          	lui	a7,0x9
    3788:	000096b7          	lui	a3,0x9
    378c:	9588a783          	lw	a5,-1704(a7) # 8958 <curr_top>
    3790:	9546a583          	lw	a1,-1708(a3) # 8954 <heap_end>
    3794:	00050813          	mv	a6,a0
    3798:	08b78c63          	beq	a5,a1,3830 <malloc+0xac>
    379c:	02b7f263          	bgeu	a5,a1,37c0 <malloc+0x3c>
    37a0:	0007a703          	lw	a4,0(a5)
    37a4:	00177693          	andi	a3,a4,1
    37a8:	40f70633          	sub	a2,a4,a5
    37ac:	00069463          	bnez	a3,37b4 <malloc+0x30>
    37b0:	04c86063          	bltu	a6,a2,37f0 <malloc+0x6c>
    37b4:	ffe77793          	andi	a5,a4,-2
    37b8:	feb7e4e3          	bltu	a5,a1,37a0 <malloc+0x1c>
    37bc:	9588a783          	lw	a5,-1704(a7)
    37c0:	00009737          	lui	a4,0x9
    37c4:	92472703          	lw	a4,-1756(a4) # 8924 <heap_top>
    37c8:	02f77063          	bgeu	a4,a5,37e8 <malloc+0x64>
    37cc:	00072683          	lw	a3,0(a4)
    37d0:	0016f613          	andi	a2,a3,1
    37d4:	40e685b3          	sub	a1,a3,a4
    37d8:	00061463          	bnez	a2,37e0 <malloc+0x5c>
    37dc:	08b86863          	bltu	a6,a1,386c <malloc+0xe8>
    37e0:	ffe6f713          	andi	a4,a3,-2
    37e4:	fef764e3          	bltu	a4,a5,37cc <malloc+0x48>
    37e8:	00000513          	li	a0,0
    37ec:	00008067          	ret
    37f0:	ffe7f593          	andi	a1,a5,-2
    37f4:	00387613          	andi	a2,a6,3
    37f8:	00458513          	addi	a0,a1,4
    37fc:	06061263          	bnez	a2,3860 <malloc+0xdc>
    3800:	00480613          	addi	a2,a6,4
    3804:	00d606b3          	add	a3,a2,a3
    3808:	ffc6f693          	andi	a3,a3,-4
    380c:	00d786b3          	add	a3,a5,a3
    3810:	94d8ac23          	sw	a3,-1704(a7)
    3814:	00e68463          	beq	a3,a4,381c <malloc+0x98>
    3818:	00e6a023          	sw	a4,0(a3)
    381c:	0016e713          	ori	a4,a3,1
    3820:	00e7a023          	sw	a4,0(a5)
    3824:	ffc00793          	li	a5,-4
    3828:	08f58263          	beq	a1,a5,38ac <malloc+0x128>
    382c:	00008067          	ret
    3830:	000097b7          	lui	a5,0x9
    3834:	00009737          	lui	a4,0x9
    3838:	9247a783          	lw	a5,-1756(a5) # 8924 <heap_top>
    383c:	92072703          	lw	a4,-1760(a4) # 8920 <heap_size>
    3840:	94f8ac23          	sw	a5,-1704(a7)
    3844:	00e78733          	add	a4,a5,a4
    3848:	ff077713          	andi	a4,a4,-16
    384c:	94e6aa23          	sw	a4,-1708(a3)
    3850:	00e7a023          	sw	a4,0(a5)
    3854:	00070593          	mv	a1,a4
    3858:	f4e7e6e3          	bltu	a5,a4,37a4 <malloc+0x20>
    385c:	f8dff06f          	j	37e8 <malloc+0x64>
    3860:	00400693          	li	a3,4
    3864:	40c686b3          	sub	a3,a3,a2
    3868:	f99ff06f          	j	3800 <malloc+0x7c>
    386c:	ffe77513          	andi	a0,a4,-2
    3870:	00387593          	andi	a1,a6,3
    3874:	00450513          	addi	a0,a0,4
    3878:	00058663          	beqz	a1,3884 <malloc+0x100>
    387c:	00400793          	li	a5,4
    3880:	40b78633          	sub	a2,a5,a1
    3884:	00480793          	addi	a5,a6,4
    3888:	00c787b3          	add	a5,a5,a2
    388c:	ffc7f793          	andi	a5,a5,-4
    3890:	00f707b3          	add	a5,a4,a5
    3894:	94f8ac23          	sw	a5,-1704(a7)
    3898:	00d78463          	beq	a5,a3,38a0 <malloc+0x11c>
    389c:	00d7a023          	sw	a3,0(a5)
    38a0:	0017e793          	ori	a5,a5,1
    38a4:	00f72023          	sw	a5,0(a4)
    38a8:	00008067          	ret
    38ac:	00068793          	mv	a5,a3
    38b0:	f11ff06f          	j	37c0 <malloc+0x3c>

000038b4 <free>:
    38b4:	ffc52783          	lw	a5,-4(a0)
    38b8:	ffe7f793          	andi	a5,a5,-2
    38bc:	fef52e23          	sw	a5,-4(a0)
    38c0:	0007a783          	lw	a5,0(a5)
    38c4:	0017f713          	andi	a4,a5,1
    38c8:	00071a63          	bnez	a4,38dc <free+0x28>
    38cc:	ffc50713          	addi	a4,a0,-4
    38d0:	fef52e23          	sw	a5,-4(a0)
    38d4:	000097b7          	lui	a5,0x9
    38d8:	94e7ac23          	sw	a4,-1704(a5) # 8958 <curr_top>
    38dc:	00008067          	ret

000038e0 <calloc>:
    38e0:	ff010113          	addi	sp,sp,-16
    38e4:	00912423          	sw	s1,8(sp)
    38e8:	02b504b3          	mul	s1,a0,a1
    38ec:	00112623          	sw	ra,12(sp)
    38f0:	01212223          	sw	s2,4(sp)
    38f4:	00048513          	mv	a0,s1
    38f8:	e8dff0ef          	jal	ra,3784 <malloc>
    38fc:	00048613          	mv	a2,s1
    3900:	00000593          	li	a1,0
    3904:	00050913          	mv	s2,a0
    3908:	180000ef          	jal	ra,3a88 <memset>
    390c:	00c12083          	lw	ra,12(sp)
    3910:	00812483          	lw	s1,8(sp)
    3914:	00090513          	mv	a0,s2
    3918:	00412903          	lw	s2,4(sp)
    391c:	01010113          	addi	sp,sp,16
    3920:	00008067          	ret

00003924 <atoi>:
    3924:	00050793          	mv	a5,a0
    3928:	02000693          	li	a3,32
    392c:	00900613          	li	a2,9
    3930:	0007c703          	lbu	a4,0(a5)
    3934:	00d70463          	beq	a4,a3,393c <atoi+0x18>
    3938:	00c71663          	bne	a4,a2,3944 <atoi+0x20>
    393c:	00178793          	addi	a5,a5,1
    3940:	ff1ff06f          	j	3930 <atoi+0xc>
    3944:	02d00693          	li	a3,45
    3948:	00100813          	li	a6,1
    394c:	00d71863          	bne	a4,a3,395c <atoi+0x38>
    3950:	0017c703          	lbu	a4,1(a5)
    3954:	fff00813          	li	a6,-1
    3958:	00178793          	addi	a5,a5,1
    395c:	fd070713          	addi	a4,a4,-48
    3960:	0ff77613          	zext.b	a2,a4
    3964:	00900693          	li	a3,9
    3968:	00000513          	li	a0,0
    396c:	04c6e263          	bltu	a3,a2,39b0 <atoi+0x8c>
    3970:	0017c683          	lbu	a3,1(a5)
    3974:	00178793          	addi	a5,a5,1
    3978:	02068e63          	beqz	a3,39b4 <atoi+0x90>
    397c:	00900593          	li	a1,9
    3980:	0100006f          	j	3990 <atoi+0x6c>
    3984:	0007c683          	lbu	a3,0(a5)
    3988:	00e60733          	add	a4,a2,a4
    398c:	02068463          	beqz	a3,39b4 <atoi+0x90>
    3990:	00271513          	slli	a0,a4,0x2
    3994:	fd068613          	addi	a2,a3,-48
    3998:	00e50733          	add	a4,a0,a4
    399c:	0ff67693          	zext.b	a3,a2
    39a0:	00178793          	addi	a5,a5,1
    39a4:	00171713          	slli	a4,a4,0x1
    39a8:	fcd5fee3          	bgeu	a1,a3,3984 <atoi+0x60>
    39ac:	00000513          	li	a0,0
    39b0:	00008067          	ret
    39b4:	02e80533          	mul	a0,a6,a4
    39b8:	00008067          	ret

000039bc <abs>:
    39bc:	41f55793          	srai	a5,a0,0x1f
    39c0:	00a7c533          	xor	a0,a5,a0
    39c4:	40f50533          	sub	a0,a0,a5
    39c8:	00008067          	ret

000039cc <srand>:
    39cc:	000097b7          	lui	a5,0x9
    39d0:	94a7a823          	sw	a0,-1712(a5) # 8950 <rand_seed>
    39d4:	00008067          	ret

000039d8 <rand>:
    39d8:	000096b7          	lui	a3,0x9
    39dc:	9506a783          	lw	a5,-1712(a3) # 8950 <rand_seed>
    39e0:	00034737          	lui	a4,0x34
    39e4:	3fd70713          	addi	a4,a4,1021 # 343fd <__heap_start+0x27a7d>
    39e8:	02e787b3          	mul	a5,a5,a4
    39ec:	0026a737          	lui	a4,0x26a
    39f0:	ec370713          	addi	a4,a4,-317 # 269ec3 <__heap_start+0x25d543>
    39f4:	00e787b3          	add	a5,a5,a4
    39f8:	00179513          	slli	a0,a5,0x1
    39fc:	94f6a823          	sw	a5,-1712(a3)
    3a00:	01155513          	srli	a0,a0,0x11
    3a04:	00008067          	ret

00003a08 <memcpy>:
    3a08:	02060063          	beqz	a2,3a28 <memcpy+0x20>
    3a0c:	00c50633          	add	a2,a0,a2
    3a10:	00050793          	mv	a5,a0
    3a14:	0005c703          	lbu	a4,0(a1)
    3a18:	00178793          	addi	a5,a5,1
    3a1c:	00158593          	addi	a1,a1,1
    3a20:	fee78fa3          	sb	a4,-1(a5)
    3a24:	fec798e3          	bne	a5,a2,3a14 <memcpy+0xc>
    3a28:	00008067          	ret

00003a2c <memmove>:
    3a2c:	02b56a63          	bltu	a0,a1,3a60 <memmove+0x34>
    3a30:	00c587b3          	add	a5,a1,a2
    3a34:	02a7e663          	bltu	a5,a0,3a60 <memmove+0x34>
    3a38:	fff60793          	addi	a5,a2,-1
    3a3c:	0407c263          	bltz	a5,3a80 <memmove+0x54>
    3a40:	fff00613          	li	a2,-1
    3a44:	00f58733          	add	a4,a1,a5
    3a48:	00074683          	lbu	a3,0(a4)
    3a4c:	00f50733          	add	a4,a0,a5
    3a50:	fff78793          	addi	a5,a5,-1
    3a54:	00d70023          	sb	a3,0(a4)
    3a58:	fec796e3          	bne	a5,a2,3a44 <memmove+0x18>
    3a5c:	00008067          	ret
    3a60:	00c506b3          	add	a3,a0,a2
    3a64:	00050793          	mv	a5,a0
    3a68:	00060e63          	beqz	a2,3a84 <memmove+0x58>
    3a6c:	0005c703          	lbu	a4,0(a1)
    3a70:	00178793          	addi	a5,a5,1
    3a74:	00158593          	addi	a1,a1,1
    3a78:	fee78fa3          	sb	a4,-1(a5)
    3a7c:	fef698e3          	bne	a3,a5,3a6c <memmove+0x40>
    3a80:	00008067          	ret
    3a84:	00008067          	ret

00003a88 <memset>:
    3a88:	0ff5f593          	zext.b	a1,a1
    3a8c:	00c50733          	add	a4,a0,a2
    3a90:	00050793          	mv	a5,a0
    3a94:	00060863          	beqz	a2,3aa4 <memset+0x1c>
    3a98:	00178793          	addi	a5,a5,1
    3a9c:	feb78fa3          	sb	a1,-1(a5)
    3aa0:	fee79ce3          	bne	a5,a4,3a98 <memset+0x10>
    3aa4:	00008067          	ret

00003aa8 <strlen>:
    3aa8:	00054783          	lbu	a5,0(a0)
    3aac:	00050713          	mv	a4,a0
    3ab0:	00000513          	li	a0,0
    3ab4:	00078c63          	beqz	a5,3acc <strlen+0x24>
    3ab8:	00150513          	addi	a0,a0,1
    3abc:	00a707b3          	add	a5,a4,a0
    3ac0:	0007c783          	lbu	a5,0(a5)
    3ac4:	fe079ae3          	bnez	a5,3ab8 <strlen+0x10>
    3ac8:	00008067          	ret
    3acc:	00008067          	ret

00003ad0 <strcpy>:
    3ad0:	0005c783          	lbu	a5,0(a1)
    3ad4:	00050713          	mv	a4,a0
    3ad8:	00078c63          	beqz	a5,3af0 <strcpy+0x20>
    3adc:	00f70023          	sb	a5,0(a4)
    3ae0:	0015c783          	lbu	a5,1(a1)
    3ae4:	00158593          	addi	a1,a1,1
    3ae8:	00170713          	addi	a4,a4,1
    3aec:	fe0798e3          	bnez	a5,3adc <strcpy+0xc>
    3af0:	00070023          	sb	zero,0(a4)
    3af4:	00008067          	ret

00003af8 <strncpy>:
    3af8:	0005c703          	lbu	a4,0(a1)
    3afc:	04070463          	beqz	a4,3b44 <strncpy+0x4c>
    3b00:	02060e63          	beqz	a2,3b3c <strncpy+0x44>
    3b04:	00050793          	mv	a5,a0
    3b08:	0080006f          	j	3b10 <strncpy+0x18>
    3b0c:	02060a63          	beqz	a2,3b40 <strncpy+0x48>
    3b10:	00e78023          	sb	a4,0(a5)
    3b14:	0015c703          	lbu	a4,1(a1)
    3b18:	00178793          	addi	a5,a5,1
    3b1c:	00158593          	addi	a1,a1,1
    3b20:	fff60613          	addi	a2,a2,-1
    3b24:	fe0714e3          	bnez	a4,3b0c <strncpy+0x14>
    3b28:	00c78733          	add	a4,a5,a2
    3b2c:	02060063          	beqz	a2,3b4c <strncpy+0x54>
    3b30:	00178793          	addi	a5,a5,1
    3b34:	fe078fa3          	sb	zero,-1(a5)
    3b38:	fee79ce3          	bne	a5,a4,3b30 <strncpy+0x38>
    3b3c:	00008067          	ret
    3b40:	00008067          	ret
    3b44:	00050793          	mv	a5,a0
    3b48:	fe1ff06f          	j	3b28 <strncpy+0x30>
    3b4c:	00008067          	ret

00003b50 <strcat>:
    3b50:	00054783          	lbu	a5,0(a0)
    3b54:	02078c63          	beqz	a5,3b8c <strcat+0x3c>
    3b58:	00050793          	mv	a5,a0
    3b5c:	0017c703          	lbu	a4,1(a5)
    3b60:	00178793          	addi	a5,a5,1
    3b64:	fe071ce3          	bnez	a4,3b5c <strcat+0xc>
    3b68:	0005c703          	lbu	a4,0(a1)
    3b6c:	00070c63          	beqz	a4,3b84 <strcat+0x34>
    3b70:	00e78023          	sb	a4,0(a5)
    3b74:	0015c703          	lbu	a4,1(a1)
    3b78:	00158593          	addi	a1,a1,1
    3b7c:	00178793          	addi	a5,a5,1
    3b80:	fe0718e3          	bnez	a4,3b70 <strcat+0x20>
    3b84:	00078023          	sb	zero,0(a5)
    3b88:	00008067          	ret
    3b8c:	00050793          	mv	a5,a0
    3b90:	fd9ff06f          	j	3b68 <strcat+0x18>

00003b94 <strncat>:
    3b94:	00054783          	lbu	a5,0(a0)
    3b98:	04078463          	beqz	a5,3be0 <strncat+0x4c>
    3b9c:	00050793          	mv	a5,a0
    3ba0:	0017c703          	lbu	a4,1(a5)
    3ba4:	00178793          	addi	a5,a5,1
    3ba8:	fe071ce3          	bnez	a4,3ba0 <strncat+0xc>
    3bac:	0005c703          	lbu	a4,0(a1)
    3bb0:	02070463          	beqz	a4,3bd8 <strncat+0x44>
    3bb4:	02060263          	beqz	a2,3bd8 <strncat+0x44>
    3bb8:	00c58633          	add	a2,a1,a2
    3bbc:	0080006f          	j	3bc4 <strncat+0x30>
    3bc0:	00b60c63          	beq	a2,a1,3bd8 <strncat+0x44>
    3bc4:	00e78023          	sb	a4,0(a5)
    3bc8:	0015c703          	lbu	a4,1(a1)
    3bcc:	00158593          	addi	a1,a1,1
    3bd0:	00178793          	addi	a5,a5,1
    3bd4:	fe0716e3          	bnez	a4,3bc0 <strncat+0x2c>
    3bd8:	00078023          	sb	zero,0(a5)
    3bdc:	00008067          	ret
    3be0:	00050793          	mv	a5,a0
    3be4:	fc9ff06f          	j	3bac <strncat+0x18>

00003be8 <strcmp>:
    3be8:	fff50513          	addi	a0,a0,-1
    3bec:	fff58593          	addi	a1,a1,-1
    3bf0:	0080006f          	j	3bf8 <strcmp+0x10>
    3bf4:	02078463          	beqz	a5,3c1c <strcmp+0x34>
    3bf8:	00154783          	lbu	a5,1(a0)
    3bfc:	0015c703          	lbu	a4,1(a1)
    3c00:	00150513          	addi	a0,a0,1
    3c04:	00158593          	addi	a1,a1,1
    3c08:	fee786e3          	beq	a5,a4,3bf4 <strcmp+0xc>
    3c0c:	00e7b533          	sltu	a0,a5,a4
    3c10:	40a00533          	neg	a0,a0
    3c14:	00156513          	ori	a0,a0,1
    3c18:	00008067          	ret
    3c1c:	00000513          	li	a0,0
    3c20:	00008067          	ret

00003c24 <strncmp>:
    3c24:	fff60613          	addi	a2,a2,-1
    3c28:	fff58593          	addi	a1,a1,-1
    3c2c:	00c50633          	add	a2,a0,a2
    3c30:	0100006f          	j	3c40 <strncmp+0x1c>
    3c34:	02a60663          	beq	a2,a0,3c60 <strncmp+0x3c>
    3c38:	02078463          	beqz	a5,3c60 <strncmp+0x3c>
    3c3c:	00150513          	addi	a0,a0,1
    3c40:	0015c703          	lbu	a4,1(a1)
    3c44:	00054783          	lbu	a5,0(a0)
    3c48:	00158593          	addi	a1,a1,1
    3c4c:	fee784e3          	beq	a5,a4,3c34 <strncmp+0x10>
    3c50:	00e7b533          	sltu	a0,a5,a4
    3c54:	40a00533          	neg	a0,a0
    3c58:	00156513          	ori	a0,a0,1
    3c5c:	00008067          	ret
    3c60:	00000513          	li	a0,0
    3c64:	00008067          	ret

00003c68 <clock>:
    3c68:	ff010113          	addi	sp,sp,-16
    3c6c:	00112623          	sw	ra,12(sp)
    3c70:	b0002573          	csrr	a0,mcycle
    3c74:	b8002773          	csrr	a4,mcycleh
    3c78:	000f47b7          	lui	a5,0xf4
    3c7c:	24078793          	addi	a5,a5,576 # f4240 <__heap_start+0xe78c0>
    3c80:	02f535b3          	mulhu	a1,a0,a5
    3c84:	027bd637          	lui	a2,0x27bd
    3c88:	86b60613          	addi	a2,a2,-1941 # 27bc86b <__heap_start+0x27afeeb>
    3c8c:	00000693          	li	a3,0
    3c90:	02f70733          	mul	a4,a4,a5
    3c94:	02f50533          	mul	a0,a0,a5
    3c98:	00b705b3          	add	a1,a4,a1
    3c9c:	068000ef          	jal	ra,3d04 <__divdi3>
    3ca0:	00c12083          	lw	ra,12(sp)
    3ca4:	01010113          	addi	sp,sp,16
    3ca8:	00008067          	ret

00003cac <inbyte>:
    3cac:	c0000737          	lui	a4,0xc0000
    3cb0:	00872783          	lw	a5,8(a4) # c0000008 <__heap_start+0xbfff3688>
    3cb4:	0017f793          	andi	a5,a5,1
    3cb8:	fe078ce3          	beqz	a5,3cb0 <inbyte+0x4>
    3cbc:	00072503          	lw	a0,0(a4)
    3cc0:	0ff57513          	zext.b	a0,a0
    3cc4:	00008067          	ret

00003cc8 <outbyte>:
    3cc8:	00a00793          	li	a5,10
    3ccc:	00f50e63          	beq	a0,a5,3ce8 <outbyte+0x20>
    3cd0:	c0000737          	lui	a4,0xc0000
    3cd4:	00872783          	lw	a5,8(a4) # c0000008 <__heap_start+0xbfff3688>
    3cd8:	0087f793          	andi	a5,a5,8
    3cdc:	fe079ce3          	bnez	a5,3cd4 <outbyte+0xc>
    3ce0:	00a72223          	sw	a0,4(a4)
    3ce4:	00008067          	ret
    3ce8:	c0000737          	lui	a4,0xc0000
    3cec:	00872783          	lw	a5,8(a4) # c0000008 <__heap_start+0xbfff3688>
    3cf0:	0087f793          	andi	a5,a5,8
    3cf4:	fe079ce3          	bnez	a5,3cec <outbyte+0x24>
    3cf8:	00d00793          	li	a5,13
    3cfc:	00f72223          	sw	a5,4(a4)
    3d00:	fd1ff06f          	j	3cd0 <outbyte+0x8>

00003d04 <__divdi3>:
    3d04:	00050e13          	mv	t3,a0
    3d08:	00000813          	li	a6,0
    3d0c:	0005dc63          	bgez	a1,3d24 <__divdi3+0x20>
    3d10:	00a037b3          	snez	a5,a0
    3d14:	40b005b3          	neg	a1,a1
    3d18:	40f585b3          	sub	a1,a1,a5
    3d1c:	40a00e33          	neg	t3,a0
    3d20:	fff00813          	li	a6,-1
    3d24:	0006dc63          	bgez	a3,3d3c <__divdi3+0x38>
    3d28:	00c037b3          	snez	a5,a2
    3d2c:	40d006b3          	neg	a3,a3
    3d30:	fff84813          	not	a6,a6
    3d34:	40f686b3          	sub	a3,a3,a5
    3d38:	40c00633          	neg	a2,a2
    3d3c:	00060893          	mv	a7,a2
    3d40:	00068f13          	mv	t5,a3
    3d44:	000e0e93          	mv	t4,t3
    3d48:	00058313          	mv	t1,a1
    3d4c:	2a069063          	bnez	a3,3fec <__divdi3+0x2e8>
    3d50:	00009737          	lui	a4,0x9
    3d54:	80070713          	addi	a4,a4,-2048 # 8800 <__clz_tab>
    3d58:	0ec5f663          	bgeu	a1,a2,3e44 <__divdi3+0x140>
    3d5c:	000107b7          	lui	a5,0x10
    3d60:	0cf67863          	bgeu	a2,a5,3e30 <__divdi3+0x12c>
    3d64:	0ff00793          	li	a5,255
    3d68:	00c7b7b3          	sltu	a5,a5,a2
    3d6c:	00379793          	slli	a5,a5,0x3
    3d70:	00f656b3          	srl	a3,a2,a5
    3d74:	00d70733          	add	a4,a4,a3
    3d78:	00074683          	lbu	a3,0(a4)
    3d7c:	00f687b3          	add	a5,a3,a5
    3d80:	02000693          	li	a3,32
    3d84:	40f68733          	sub	a4,a3,a5
    3d88:	00f68c63          	beq	a3,a5,3da0 <__divdi3+0x9c>
    3d8c:	00e595b3          	sll	a1,a1,a4
    3d90:	00fe57b3          	srl	a5,t3,a5
    3d94:	00e618b3          	sll	a7,a2,a4
    3d98:	00b7e333          	or	t1,a5,a1
    3d9c:	00ee1eb3          	sll	t4,t3,a4
    3da0:	0108d513          	srli	a0,a7,0x10
    3da4:	02a356b3          	divu	a3,t1,a0
    3da8:	01089593          	slli	a1,a7,0x10
    3dac:	0105d593          	srli	a1,a1,0x10
    3db0:	010ed793          	srli	a5,t4,0x10
    3db4:	02a37733          	remu	a4,t1,a0
    3db8:	00068613          	mv	a2,a3
    3dbc:	02d58333          	mul	t1,a1,a3
    3dc0:	01071713          	slli	a4,a4,0x10
    3dc4:	00f767b3          	or	a5,a4,a5
    3dc8:	0067fe63          	bgeu	a5,t1,3de4 <__divdi3+0xe0>
    3dcc:	011787b3          	add	a5,a5,a7
    3dd0:	fff68613          	addi	a2,a3,-1
    3dd4:	0117e863          	bltu	a5,a7,3de4 <__divdi3+0xe0>
    3dd8:	0067f663          	bgeu	a5,t1,3de4 <__divdi3+0xe0>
    3ddc:	ffe68613          	addi	a2,a3,-2
    3de0:	011787b3          	add	a5,a5,a7
    3de4:	406787b3          	sub	a5,a5,t1
    3de8:	02a7f733          	remu	a4,a5,a0
    3dec:	010e9e93          	slli	t4,t4,0x10
    3df0:	010ede93          	srli	t4,t4,0x10
    3df4:	02a7d7b3          	divu	a5,a5,a0
    3df8:	01071713          	slli	a4,a4,0x10
    3dfc:	01d76eb3          	or	t4,a4,t4
    3e00:	02f586b3          	mul	a3,a1,a5
    3e04:	00078713          	mv	a4,a5
    3e08:	00defc63          	bgeu	t4,a3,3e20 <__divdi3+0x11c>
    3e0c:	01d88eb3          	add	t4,a7,t4
    3e10:	fff78713          	addi	a4,a5,-1 # ffff <__heap_start+0x367f>
    3e14:	011ee663          	bltu	t4,a7,3e20 <__divdi3+0x11c>
    3e18:	00def463          	bgeu	t4,a3,3e20 <__divdi3+0x11c>
    3e1c:	ffe78713          	addi	a4,a5,-2
    3e20:	01061513          	slli	a0,a2,0x10
    3e24:	00e56533          	or	a0,a0,a4
    3e28:	00000313          	li	t1,0
    3e2c:	0e40006f          	j	3f10 <__divdi3+0x20c>
    3e30:	010006b7          	lui	a3,0x1000
    3e34:	01000793          	li	a5,16
    3e38:	f2d66ce3          	bltu	a2,a3,3d70 <__divdi3+0x6c>
    3e3c:	01800793          	li	a5,24
    3e40:	f31ff06f          	j	3d70 <__divdi3+0x6c>
    3e44:	00061663          	bnez	a2,3e50 <__divdi3+0x14c>
    3e48:	00100893          	li	a7,1
    3e4c:	02d8d8b3          	divu	a7,a7,a3
    3e50:	000107b7          	lui	a5,0x10
    3e54:	0cf8fc63          	bgeu	a7,a5,3f2c <__divdi3+0x228>
    3e58:	0ff00793          	li	a5,255
    3e5c:	0117f463          	bgeu	a5,a7,3e64 <__divdi3+0x160>
    3e60:	00800f13          	li	t5,8
    3e64:	01e8d7b3          	srl	a5,a7,t5
    3e68:	00f70733          	add	a4,a4,a5
    3e6c:	00074783          	lbu	a5,0(a4)
    3e70:	02000693          	li	a3,32
    3e74:	01e787b3          	add	a5,a5,t5
    3e78:	40f68733          	sub	a4,a3,a5
    3e7c:	0cf69263          	bne	a3,a5,3f40 <__divdi3+0x23c>
    3e80:	411585b3          	sub	a1,a1,a7
    3e84:	00100313          	li	t1,1
    3e88:	0108d513          	srli	a0,a7,0x10
    3e8c:	01089613          	slli	a2,a7,0x10
    3e90:	01065613          	srli	a2,a2,0x10
    3e94:	010ed713          	srli	a4,t4,0x10
    3e98:	02a5d7b3          	divu	a5,a1,a0
    3e9c:	02a5f6b3          	remu	a3,a1,a0
    3ea0:	02f605b3          	mul	a1,a2,a5
    3ea4:	01069693          	slli	a3,a3,0x10
    3ea8:	00e6e733          	or	a4,a3,a4
    3eac:	00078693          	mv	a3,a5
    3eb0:	00b77e63          	bgeu	a4,a1,3ecc <__divdi3+0x1c8>
    3eb4:	01170733          	add	a4,a4,a7
    3eb8:	fff78693          	addi	a3,a5,-1 # ffff <__heap_start+0x367f>
    3ebc:	01176863          	bltu	a4,a7,3ecc <__divdi3+0x1c8>
    3ec0:	00b77663          	bgeu	a4,a1,3ecc <__divdi3+0x1c8>
    3ec4:	ffe78693          	addi	a3,a5,-2
    3ec8:	01170733          	add	a4,a4,a7
    3ecc:	40b70733          	sub	a4,a4,a1
    3ed0:	02a777b3          	remu	a5,a4,a0
    3ed4:	010e9e93          	slli	t4,t4,0x10
    3ed8:	010ede93          	srli	t4,t4,0x10
    3edc:	02a75733          	divu	a4,a4,a0
    3ee0:	01079793          	slli	a5,a5,0x10
    3ee4:	01d7eeb3          	or	t4,a5,t4
    3ee8:	02e60633          	mul	a2,a2,a4
    3eec:	00070793          	mv	a5,a4
    3ef0:	00cefc63          	bgeu	t4,a2,3f08 <__divdi3+0x204>
    3ef4:	01d88eb3          	add	t4,a7,t4
    3ef8:	fff70793          	addi	a5,a4,-1
    3efc:	011ee663          	bltu	t4,a7,3f08 <__divdi3+0x204>
    3f00:	00cef463          	bgeu	t4,a2,3f08 <__divdi3+0x204>
    3f04:	ffe70793          	addi	a5,a4,-2
    3f08:	01069513          	slli	a0,a3,0x10
    3f0c:	00f56533          	or	a0,a0,a5
    3f10:	00030593          	mv	a1,t1
    3f14:	00080a63          	beqz	a6,3f28 <__divdi3+0x224>
    3f18:	00a037b3          	snez	a5,a0
    3f1c:	406005b3          	neg	a1,t1
    3f20:	40f585b3          	sub	a1,a1,a5
    3f24:	40a00533          	neg	a0,a0
    3f28:	00008067          	ret
    3f2c:	010007b7          	lui	a5,0x1000
    3f30:	01000f13          	li	t5,16
    3f34:	f2f8e8e3          	bltu	a7,a5,3e64 <__divdi3+0x160>
    3f38:	01800f13          	li	t5,24
    3f3c:	f29ff06f          	j	3e64 <__divdi3+0x160>
    3f40:	00e898b3          	sll	a7,a7,a4
    3f44:	00f5d533          	srl	a0,a1,a5
    3f48:	00ee1eb3          	sll	t4,t3,a4
    3f4c:	00e595b3          	sll	a1,a1,a4
    3f50:	00fe57b3          	srl	a5,t3,a5
    3f54:	0108de13          	srli	t3,a7,0x10
    3f58:	00b7e633          	or	a2,a5,a1
    3f5c:	03c557b3          	divu	a5,a0,t3
    3f60:	01089593          	slli	a1,a7,0x10
    3f64:	0105d593          	srli	a1,a1,0x10
    3f68:	03c57733          	remu	a4,a0,t3
    3f6c:	01065513          	srli	a0,a2,0x10
    3f70:	00078313          	mv	t1,a5
    3f74:	02f586b3          	mul	a3,a1,a5
    3f78:	01071713          	slli	a4,a4,0x10
    3f7c:	00a76733          	or	a4,a4,a0
    3f80:	00d77e63          	bgeu	a4,a3,3f9c <__divdi3+0x298>
    3f84:	01170733          	add	a4,a4,a7
    3f88:	fff78313          	addi	t1,a5,-1 # ffffff <__heap_start+0xff367f>
    3f8c:	01176863          	bltu	a4,a7,3f9c <__divdi3+0x298>
    3f90:	00d77663          	bgeu	a4,a3,3f9c <__divdi3+0x298>
    3f94:	ffe78313          	addi	t1,a5,-2
    3f98:	01170733          	add	a4,a4,a7
    3f9c:	40d706b3          	sub	a3,a4,a3
    3fa0:	03c6f733          	remu	a4,a3,t3
    3fa4:	01061613          	slli	a2,a2,0x10
    3fa8:	01065613          	srli	a2,a2,0x10
    3fac:	03c6d6b3          	divu	a3,a3,t3
    3fb0:	01071713          	slli	a4,a4,0x10
    3fb4:	02d587b3          	mul	a5,a1,a3
    3fb8:	00c765b3          	or	a1,a4,a2
    3fbc:	00068713          	mv	a4,a3
    3fc0:	00f5fe63          	bgeu	a1,a5,3fdc <__divdi3+0x2d8>
    3fc4:	011585b3          	add	a1,a1,a7
    3fc8:	fff68713          	addi	a4,a3,-1 # ffffff <__heap_start+0xff367f>
    3fcc:	0115e863          	bltu	a1,a7,3fdc <__divdi3+0x2d8>
    3fd0:	00f5f663          	bgeu	a1,a5,3fdc <__divdi3+0x2d8>
    3fd4:	ffe68713          	addi	a4,a3,-2
    3fd8:	011585b3          	add	a1,a1,a7
    3fdc:	01031313          	slli	t1,t1,0x10
    3fe0:	40f585b3          	sub	a1,a1,a5
    3fe4:	00e36333          	or	t1,t1,a4
    3fe8:	ea1ff06f          	j	3e88 <__divdi3+0x184>
    3fec:	18d5e663          	bltu	a1,a3,4178 <__divdi3+0x474>
    3ff0:	000107b7          	lui	a5,0x10
    3ff4:	04f6f463          	bgeu	a3,a5,403c <__divdi3+0x338>
    3ff8:	0ff00713          	li	a4,255
    3ffc:	00d737b3          	sltu	a5,a4,a3
    4000:	00379793          	slli	a5,a5,0x3
    4004:	00009737          	lui	a4,0x9
    4008:	00f6d533          	srl	a0,a3,a5
    400c:	80070713          	addi	a4,a4,-2048 # 8800 <__clz_tab>
    4010:	00a70733          	add	a4,a4,a0
    4014:	00074703          	lbu	a4,0(a4)
    4018:	00f70733          	add	a4,a4,a5
    401c:	02000793          	li	a5,32
    4020:	40e78333          	sub	t1,a5,a4
    4024:	02e79663          	bne	a5,a4,4050 <__divdi3+0x34c>
    4028:	00100513          	li	a0,1
    402c:	eeb6e2e3          	bltu	a3,a1,3f10 <__divdi3+0x20c>
    4030:	00ce3533          	sltu	a0,t3,a2
    4034:	00154513          	xori	a0,a0,1
    4038:	ed9ff06f          	j	3f10 <__divdi3+0x20c>
    403c:	01000737          	lui	a4,0x1000
    4040:	01000793          	li	a5,16
    4044:	fce6e0e3          	bltu	a3,a4,4004 <__divdi3+0x300>
    4048:	01800793          	li	a5,24
    404c:	fb9ff06f          	j	4004 <__divdi3+0x300>
    4050:	00e657b3          	srl	a5,a2,a4
    4054:	006696b3          	sll	a3,a3,t1
    4058:	00d7e6b3          	or	a3,a5,a3
    405c:	00e5d533          	srl	a0,a1,a4
    4060:	006597b3          	sll	a5,a1,t1
    4064:	00ee5733          	srl	a4,t3,a4
    4068:	0106df13          	srli	t5,a3,0x10
    406c:	00f765b3          	or	a1,a4,a5
    4070:	03e57733          	remu	a4,a0,t5
    4074:	01069e93          	slli	t4,a3,0x10
    4078:	010ede93          	srli	t4,t4,0x10
    407c:	0105d793          	srli	a5,a1,0x10
    4080:	006618b3          	sll	a7,a2,t1
    4084:	03e55533          	divu	a0,a0,t5
    4088:	01071713          	slli	a4,a4,0x10
    408c:	00f767b3          	or	a5,a4,a5
    4090:	02ae8fb3          	mul	t6,t4,a0
    4094:	00050613          	mv	a2,a0
    4098:	01f7fe63          	bgeu	a5,t6,40b4 <__divdi3+0x3b0>
    409c:	00d787b3          	add	a5,a5,a3
    40a0:	fff50613          	addi	a2,a0,-1
    40a4:	00d7e863          	bltu	a5,a3,40b4 <__divdi3+0x3b0>
    40a8:	01f7f663          	bgeu	a5,t6,40b4 <__divdi3+0x3b0>
    40ac:	ffe50613          	addi	a2,a0,-2
    40b0:	00d787b3          	add	a5,a5,a3
    40b4:	41f787b3          	sub	a5,a5,t6
    40b8:	03e7f733          	remu	a4,a5,t5
    40bc:	01059593          	slli	a1,a1,0x10
    40c0:	0105d593          	srli	a1,a1,0x10
    40c4:	03e7d7b3          	divu	a5,a5,t5
    40c8:	01071713          	slli	a4,a4,0x10
    40cc:	00b76733          	or	a4,a4,a1
    40d0:	02fe8eb3          	mul	t4,t4,a5
    40d4:	00078593          	mv	a1,a5
    40d8:	01d77e63          	bgeu	a4,t4,40f4 <__divdi3+0x3f0>
    40dc:	00d70733          	add	a4,a4,a3
    40e0:	fff78593          	addi	a1,a5,-1 # ffff <__heap_start+0x367f>
    40e4:	00d76863          	bltu	a4,a3,40f4 <__divdi3+0x3f0>
    40e8:	01d77663          	bgeu	a4,t4,40f4 <__divdi3+0x3f0>
    40ec:	ffe78593          	addi	a1,a5,-2
    40f0:	00d70733          	add	a4,a4,a3
    40f4:	01061513          	slli	a0,a2,0x10
    40f8:	00010f37          	lui	t5,0x10
    40fc:	00b56533          	or	a0,a0,a1
    4100:	ffff0693          	addi	a3,t5,-1 # ffff <__heap_start+0x367f>
    4104:	00d575b3          	and	a1,a0,a3
    4108:	01055613          	srli	a2,a0,0x10
    410c:	00d8f6b3          	and	a3,a7,a3
    4110:	0108d893          	srli	a7,a7,0x10
    4114:	41d70733          	sub	a4,a4,t4
    4118:	02d58eb3          	mul	t4,a1,a3
    411c:	02d606b3          	mul	a3,a2,a3
    4120:	010ed793          	srli	a5,t4,0x10
    4124:	031585b3          	mul	a1,a1,a7
    4128:	00d585b3          	add	a1,a1,a3
    412c:	00b787b3          	add	a5,a5,a1
    4130:	03160633          	mul	a2,a2,a7
    4134:	00d7f463          	bgeu	a5,a3,413c <__divdi3+0x438>
    4138:	01e60633          	add	a2,a2,t5
    413c:	0107d693          	srli	a3,a5,0x10
    4140:	00c68633          	add	a2,a3,a2
    4144:	02c76663          	bltu	a4,a2,4170 <__divdi3+0x46c>
    4148:	cec710e3          	bne	a4,a2,3e28 <__divdi3+0x124>
    414c:	00010737          	lui	a4,0x10
    4150:	fff70713          	addi	a4,a4,-1 # ffff <__heap_start+0x367f>
    4154:	00e7f7b3          	and	a5,a5,a4
    4158:	01079793          	slli	a5,a5,0x10
    415c:	00eefeb3          	and	t4,t4,a4
    4160:	006e1e33          	sll	t3,t3,t1
    4164:	01d787b3          	add	a5,a5,t4
    4168:	00000313          	li	t1,0
    416c:	dafe72e3          	bgeu	t3,a5,3f10 <__divdi3+0x20c>
    4170:	fff50513          	addi	a0,a0,-1
    4174:	cb5ff06f          	j	3e28 <__divdi3+0x124>
    4178:	00000313          	li	t1,0
    417c:	00000513          	li	a0,0
    4180:	d91ff06f          	j	3f10 <__divdi3+0x20c>

00004184 <__adddf3>:
    4184:	00100837          	lui	a6,0x100
    4188:	fff80813          	addi	a6,a6,-1 # fffff <__heap_start+0xf367f>
    418c:	fe010113          	addi	sp,sp,-32
    4190:	00b877b3          	and	a5,a6,a1
    4194:	0145d713          	srli	a4,a1,0x14
    4198:	00d87833          	and	a6,a6,a3
    419c:	0146d313          	srli	t1,a3,0x14
    41a0:	00812c23          	sw	s0,24(sp)
    41a4:	00379793          	slli	a5,a5,0x3
    41a8:	7ff77413          	andi	s0,a4,2047
    41ac:	01d55713          	srli	a4,a0,0x1d
    41b0:	00381813          	slli	a6,a6,0x3
    41b4:	00912a23          	sw	s1,20(sp)
    41b8:	00f767b3          	or	a5,a4,a5
    41bc:	01f5d493          	srli	s1,a1,0x1f
    41c0:	01d65713          	srli	a4,a2,0x1d
    41c4:	7ff37313          	andi	t1,t1,2047
    41c8:	00112e23          	sw	ra,28(sp)
    41cc:	01212823          	sw	s2,16(sp)
    41d0:	01312623          	sw	s3,12(sp)
    41d4:	01f6d693          	srli	a3,a3,0x1f
    41d8:	01076733          	or	a4,a4,a6
    41dc:	00351593          	slli	a1,a0,0x3
    41e0:	00361613          	slli	a2,a2,0x3
    41e4:	40640833          	sub	a6,s0,t1
    41e8:	2cd49863          	bne	s1,a3,44b8 <__adddf3+0x334>
    41ec:	13005063          	blez	a6,430c <__adddf3+0x188>
    41f0:	04031063          	bnez	t1,4230 <__adddf3+0xac>
    41f4:	00c766b3          	or	a3,a4,a2
    41f8:	70068c63          	beqz	a3,4910 <__adddf3+0x78c>
    41fc:	fff80513          	addi	a0,a6,-1
    4200:	02051063          	bnez	a0,4220 <__adddf3+0x9c>
    4204:	00c58633          	add	a2,a1,a2
    4208:	00b63533          	sltu	a0,a2,a1
    420c:	00e787b3          	add	a5,a5,a4
    4210:	00a787b3          	add	a5,a5,a0
    4214:	00060593          	mv	a1,a2
    4218:	00100413          	li	s0,1
    421c:	0700006f          	j	428c <__adddf3+0x108>
    4220:	7ff00693          	li	a3,2047
    4224:	02d81063          	bne	a6,a3,4244 <__adddf3+0xc0>
    4228:	7ff00413          	li	s0,2047
    422c:	2140006f          	j	4440 <__adddf3+0x2bc>
    4230:	7ff00693          	li	a3,2047
    4234:	20d40663          	beq	s0,a3,4440 <__adddf3+0x2bc>
    4238:	008006b7          	lui	a3,0x800
    423c:	00d76733          	or	a4,a4,a3
    4240:	00080513          	mv	a0,a6
    4244:	03800693          	li	a3,56
    4248:	0aa6cc63          	blt	a3,a0,4300 <__adddf3+0x17c>
    424c:	01f00693          	li	a3,31
    4250:	06a6ce63          	blt	a3,a0,42cc <__adddf3+0x148>
    4254:	02000813          	li	a6,32
    4258:	40a80833          	sub	a6,a6,a0
    425c:	010716b3          	sll	a3,a4,a6
    4260:	00a658b3          	srl	a7,a2,a0
    4264:	01061633          	sll	a2,a2,a6
    4268:	0116e6b3          	or	a3,a3,a7
    426c:	00c03633          	snez	a2,a2
    4270:	00c6e633          	or	a2,a3,a2
    4274:	00a75733          	srl	a4,a4,a0
    4278:	00b60633          	add	a2,a2,a1
    427c:	00b63533          	sltu	a0,a2,a1
    4280:	00f70733          	add	a4,a4,a5
    4284:	00a707b3          	add	a5,a4,a0
    4288:	00060593          	mv	a1,a2
    428c:	00800737          	lui	a4,0x800
    4290:	00e7f733          	and	a4,a5,a4
    4294:	1a070663          	beqz	a4,4440 <__adddf3+0x2bc>
    4298:	00140413          	addi	s0,s0,1
    429c:	7ff00713          	li	a4,2047
    42a0:	5ce40a63          	beq	s0,a4,4874 <__adddf3+0x6f0>
    42a4:	ff800737          	lui	a4,0xff800
    42a8:	fff70713          	addi	a4,a4,-1 # ff7fffff <__heap_start+0xff7f367f>
    42ac:	00e7f7b3          	and	a5,a5,a4
    42b0:	0015f513          	andi	a0,a1,1
    42b4:	0015d713          	srli	a4,a1,0x1
    42b8:	00a76533          	or	a0,a4,a0
    42bc:	01f79593          	slli	a1,a5,0x1f
    42c0:	00a5e5b3          	or	a1,a1,a0
    42c4:	0017d793          	srli	a5,a5,0x1
    42c8:	1780006f          	j	4440 <__adddf3+0x2bc>
    42cc:	fe050693          	addi	a3,a0,-32
    42d0:	02000893          	li	a7,32
    42d4:	00d756b3          	srl	a3,a4,a3
    42d8:	00000813          	li	a6,0
    42dc:	01150863          	beq	a0,a7,42ec <__adddf3+0x168>
    42e0:	04000813          	li	a6,64
    42e4:	40a80533          	sub	a0,a6,a0
    42e8:	00a71833          	sll	a6,a4,a0
    42ec:	00c86633          	or	a2,a6,a2
    42f0:	00c03633          	snez	a2,a2
    42f4:	00c6e633          	or	a2,a3,a2
    42f8:	00000713          	li	a4,0
    42fc:	f7dff06f          	j	4278 <__adddf3+0xf4>
    4300:	00c76633          	or	a2,a4,a2
    4304:	00c03633          	snez	a2,a2
    4308:	ff1ff06f          	j	42f8 <__adddf3+0x174>
    430c:	0e080263          	beqz	a6,43f0 <__adddf3+0x26c>
    4310:	40830533          	sub	a0,t1,s0
    4314:	02041e63          	bnez	s0,4350 <__adddf3+0x1cc>
    4318:	00b7e6b3          	or	a3,a5,a1
    431c:	52068c63          	beqz	a3,4854 <__adddf3+0x6d0>
    4320:	fff50693          	addi	a3,a0,-1
    4324:	00069c63          	bnez	a3,433c <__adddf3+0x1b8>
    4328:	00c585b3          	add	a1,a1,a2
    432c:	00e787b3          	add	a5,a5,a4
    4330:	00c5b633          	sltu	a2,a1,a2
    4334:	00c787b3          	add	a5,a5,a2
    4338:	ee1ff06f          	j	4218 <__adddf3+0x94>
    433c:	7ff00813          	li	a6,2047
    4340:	03051263          	bne	a0,a6,4364 <__adddf3+0x1e0>
    4344:	00070793          	mv	a5,a4
    4348:	00060593          	mv	a1,a2
    434c:	eddff06f          	j	4228 <__adddf3+0xa4>
    4350:	7ff00693          	li	a3,2047
    4354:	fed308e3          	beq	t1,a3,4344 <__adddf3+0x1c0>
    4358:	008006b7          	lui	a3,0x800
    435c:	00d7e7b3          	or	a5,a5,a3
    4360:	00050693          	mv	a3,a0
    4364:	03800513          	li	a0,56
    4368:	06d54e63          	blt	a0,a3,43e4 <__adddf3+0x260>
    436c:	01f00513          	li	a0,31
    4370:	04d54063          	blt	a0,a3,43b0 <__adddf3+0x22c>
    4374:	02000813          	li	a6,32
    4378:	40d80833          	sub	a6,a6,a3
    437c:	01079533          	sll	a0,a5,a6
    4380:	00d5d8b3          	srl	a7,a1,a3
    4384:	010595b3          	sll	a1,a1,a6
    4388:	01156533          	or	a0,a0,a7
    438c:	00b035b3          	snez	a1,a1
    4390:	00b56533          	or	a0,a0,a1
    4394:	00d7d7b3          	srl	a5,a5,a3
    4398:	00c505b3          	add	a1,a0,a2
    439c:	00e787b3          	add	a5,a5,a4
    43a0:	00c5b633          	sltu	a2,a1,a2
    43a4:	00c787b3          	add	a5,a5,a2
    43a8:	00030413          	mv	s0,t1
    43ac:	ee1ff06f          	j	428c <__adddf3+0x108>
    43b0:	fe068513          	addi	a0,a3,-32 # 7fffe0 <__heap_start+0x7f3660>
    43b4:	02000893          	li	a7,32
    43b8:	00a7d833          	srl	a6,a5,a0
    43bc:	00000513          	li	a0,0
    43c0:	01168863          	beq	a3,a7,43d0 <__adddf3+0x24c>
    43c4:	04000513          	li	a0,64
    43c8:	40d50533          	sub	a0,a0,a3
    43cc:	00a79533          	sll	a0,a5,a0
    43d0:	00b56533          	or	a0,a0,a1
    43d4:	00a03533          	snez	a0,a0
    43d8:	00a86533          	or	a0,a6,a0
    43dc:	00000793          	li	a5,0
    43e0:	fb9ff06f          	j	4398 <__adddf3+0x214>
    43e4:	00b7e533          	or	a0,a5,a1
    43e8:	00a03533          	snez	a0,a0
    43ec:	ff1ff06f          	j	43dc <__adddf3+0x258>
    43f0:	00140693          	addi	a3,s0,1
    43f4:	7fe6f513          	andi	a0,a3,2046
    43f8:	08051863          	bnez	a0,4488 <__adddf3+0x304>
    43fc:	00b7e6b3          	or	a3,a5,a1
    4400:	06041463          	bnez	s0,4468 <__adddf3+0x2e4>
    4404:	46068063          	beqz	a3,4864 <__adddf3+0x6e0>
    4408:	00c766b3          	or	a3,a4,a2
    440c:	02068a63          	beqz	a3,4440 <__adddf3+0x2bc>
    4410:	00c58633          	add	a2,a1,a2
    4414:	00e787b3          	add	a5,a5,a4
    4418:	00b63533          	sltu	a0,a2,a1
    441c:	00a787b3          	add	a5,a5,a0
    4420:	00800737          	lui	a4,0x800
    4424:	00e7f733          	and	a4,a5,a4
    4428:	00060593          	mv	a1,a2
    442c:	00070a63          	beqz	a4,4440 <__adddf3+0x2bc>
    4430:	ff800737          	lui	a4,0xff800
    4434:	fff70713          	addi	a4,a4,-1 # ff7fffff <__heap_start+0xff7f367f>
    4438:	00e7f7b3          	and	a5,a5,a4
    443c:	00100413          	li	s0,1
    4440:	0075f713          	andi	a4,a1,7
    4444:	42070c63          	beqz	a4,487c <__adddf3+0x6f8>
    4448:	00f5f713          	andi	a4,a1,15
    444c:	00400693          	li	a3,4
    4450:	42d70663          	beq	a4,a3,487c <__adddf3+0x6f8>
    4454:	00458713          	addi	a4,a1,4
    4458:	00b73533          	sltu	a0,a4,a1
    445c:	00a787b3          	add	a5,a5,a0
    4460:	00070593          	mv	a1,a4
    4464:	4180006f          	j	487c <__adddf3+0x6f8>
    4468:	ec068ee3          	beqz	a3,4344 <__adddf3+0x1c0>
    446c:	00c76633          	or	a2,a4,a2
    4470:	da060ce3          	beqz	a2,4228 <__adddf3+0xa4>
    4474:	00000493          	li	s1,0
    4478:	004007b7          	lui	a5,0x400
    447c:	00000593          	li	a1,0
    4480:	7ff00413          	li	s0,2047
    4484:	3f80006f          	j	487c <__adddf3+0x6f8>
    4488:	7ff00513          	li	a0,2047
    448c:	3ea68263          	beq	a3,a0,4870 <__adddf3+0x6ec>
    4490:	00c58633          	add	a2,a1,a2
    4494:	00b63533          	sltu	a0,a2,a1
    4498:	00e787b3          	add	a5,a5,a4
    449c:	00a787b3          	add	a5,a5,a0
    44a0:	01f79513          	slli	a0,a5,0x1f
    44a4:	00165613          	srli	a2,a2,0x1
    44a8:	00c565b3          	or	a1,a0,a2
    44ac:	0017d793          	srli	a5,a5,0x1
    44b0:	00068413          	mv	s0,a3
    44b4:	f8dff06f          	j	4440 <__adddf3+0x2bc>
    44b8:	0f005c63          	blez	a6,45b0 <__adddf3+0x42c>
    44bc:	08031e63          	bnez	t1,4558 <__adddf3+0x3d4>
    44c0:	00c766b3          	or	a3,a4,a2
    44c4:	44068663          	beqz	a3,4910 <__adddf3+0x78c>
    44c8:	fff80513          	addi	a0,a6,-1
    44cc:	02051063          	bnez	a0,44ec <__adddf3+0x368>
    44d0:	40c58633          	sub	a2,a1,a2
    44d4:	00c5b533          	sltu	a0,a1,a2
    44d8:	40e787b3          	sub	a5,a5,a4
    44dc:	40a787b3          	sub	a5,a5,a0
    44e0:	00060593          	mv	a1,a2
    44e4:	00100413          	li	s0,1
    44e8:	0540006f          	j	453c <__adddf3+0x3b8>
    44ec:	7ff00693          	li	a3,2047
    44f0:	d2d80ce3          	beq	a6,a3,4228 <__adddf3+0xa4>
    44f4:	03800693          	li	a3,56
    44f8:	0aa6c663          	blt	a3,a0,45a4 <__adddf3+0x420>
    44fc:	01f00693          	li	a3,31
    4500:	06a6c863          	blt	a3,a0,4570 <__adddf3+0x3ec>
    4504:	02000813          	li	a6,32
    4508:	40a80833          	sub	a6,a6,a0
    450c:	010716b3          	sll	a3,a4,a6
    4510:	00a658b3          	srl	a7,a2,a0
    4514:	01061633          	sll	a2,a2,a6
    4518:	0116e6b3          	or	a3,a3,a7
    451c:	00c03633          	snez	a2,a2
    4520:	00c6e633          	or	a2,a3,a2
    4524:	00a75733          	srl	a4,a4,a0
    4528:	40c58633          	sub	a2,a1,a2
    452c:	00c5b533          	sltu	a0,a1,a2
    4530:	40e78733          	sub	a4,a5,a4
    4534:	40a707b3          	sub	a5,a4,a0
    4538:	00060593          	mv	a1,a2
    453c:	00800937          	lui	s2,0x800
    4540:	0127f733          	and	a4,a5,s2
    4544:	ee070ee3          	beqz	a4,4440 <__adddf3+0x2bc>
    4548:	fff90913          	addi	s2,s2,-1 # 7fffff <__heap_start+0x7f367f>
    454c:	0127f933          	and	s2,a5,s2
    4550:	00058993          	mv	s3,a1
    4554:	2140006f          	j	4768 <__adddf3+0x5e4>
    4558:	7ff00693          	li	a3,2047
    455c:	eed402e3          	beq	s0,a3,4440 <__adddf3+0x2bc>
    4560:	008006b7          	lui	a3,0x800
    4564:	00d76733          	or	a4,a4,a3
    4568:	00080513          	mv	a0,a6
    456c:	f89ff06f          	j	44f4 <__adddf3+0x370>
    4570:	fe050693          	addi	a3,a0,-32
    4574:	02000893          	li	a7,32
    4578:	00d756b3          	srl	a3,a4,a3
    457c:	00000813          	li	a6,0
    4580:	01150863          	beq	a0,a7,4590 <__adddf3+0x40c>
    4584:	04000813          	li	a6,64
    4588:	40a80533          	sub	a0,a6,a0
    458c:	00a71833          	sll	a6,a4,a0
    4590:	00c86633          	or	a2,a6,a2
    4594:	00c03633          	snez	a2,a2
    4598:	00c6e633          	or	a2,a3,a2
    459c:	00000713          	li	a4,0
    45a0:	f89ff06f          	j	4528 <__adddf3+0x3a4>
    45a4:	00c76633          	or	a2,a4,a2
    45a8:	00c03633          	snez	a2,a2
    45ac:	ff1ff06f          	j	459c <__adddf3+0x418>
    45b0:	0e080863          	beqz	a6,46a0 <__adddf3+0x51c>
    45b4:	40830533          	sub	a0,t1,s0
    45b8:	04041263          	bnez	s0,45fc <__adddf3+0x478>
    45bc:	00b7e833          	or	a6,a5,a1
    45c0:	34080c63          	beqz	a6,4918 <__adddf3+0x794>
    45c4:	fff50813          	addi	a6,a0,-1
    45c8:	00081e63          	bnez	a6,45e4 <__adddf3+0x460>
    45cc:	40b605b3          	sub	a1,a2,a1
    45d0:	40f707b3          	sub	a5,a4,a5
    45d4:	00b63633          	sltu	a2,a2,a1
    45d8:	40c787b3          	sub	a5,a5,a2
    45dc:	00068493          	mv	s1,a3
    45e0:	f05ff06f          	j	44e4 <__adddf3+0x360>
    45e4:	7ff00893          	li	a7,2047
    45e8:	03151463          	bne	a0,a7,4610 <__adddf3+0x48c>
    45ec:	00070793          	mv	a5,a4
    45f0:	00060593          	mv	a1,a2
    45f4:	7ff00413          	li	s0,2047
    45f8:	0d00006f          	j	46c8 <__adddf3+0x544>
    45fc:	7ff00813          	li	a6,2047
    4600:	ff0306e3          	beq	t1,a6,45ec <__adddf3+0x468>
    4604:	00800837          	lui	a6,0x800
    4608:	0107e7b3          	or	a5,a5,a6
    460c:	00050813          	mv	a6,a0
    4610:	03800513          	li	a0,56
    4614:	09054063          	blt	a0,a6,4694 <__adddf3+0x510>
    4618:	01f00513          	li	a0,31
    461c:	05054263          	blt	a0,a6,4660 <__adddf3+0x4dc>
    4620:	02000893          	li	a7,32
    4624:	410888b3          	sub	a7,a7,a6
    4628:	01179533          	sll	a0,a5,a7
    462c:	0105de33          	srl	t3,a1,a6
    4630:	011595b3          	sll	a1,a1,a7
    4634:	01c56533          	or	a0,a0,t3
    4638:	00b035b3          	snez	a1,a1
    463c:	00b56533          	or	a0,a0,a1
    4640:	0107d7b3          	srl	a5,a5,a6
    4644:	40a605b3          	sub	a1,a2,a0
    4648:	40f707b3          	sub	a5,a4,a5
    464c:	00b63633          	sltu	a2,a2,a1
    4650:	40c787b3          	sub	a5,a5,a2
    4654:	00030413          	mv	s0,t1
    4658:	00068493          	mv	s1,a3
    465c:	ee1ff06f          	j	453c <__adddf3+0x3b8>
    4660:	fe080513          	addi	a0,a6,-32 # 7fffe0 <__heap_start+0x7f3660>
    4664:	02000e13          	li	t3,32
    4668:	00a7d8b3          	srl	a7,a5,a0
    466c:	00000513          	li	a0,0
    4670:	01c80863          	beq	a6,t3,4680 <__adddf3+0x4fc>
    4674:	04000513          	li	a0,64
    4678:	41050533          	sub	a0,a0,a6
    467c:	00a79533          	sll	a0,a5,a0
    4680:	00b56533          	or	a0,a0,a1
    4684:	00a03533          	snez	a0,a0
    4688:	00a8e533          	or	a0,a7,a0
    468c:	00000793          	li	a5,0
    4690:	fb5ff06f          	j	4644 <__adddf3+0x4c0>
    4694:	00b7e533          	or	a0,a5,a1
    4698:	00a03533          	snez	a0,a0
    469c:	ff1ff06f          	j	468c <__adddf3+0x508>
    46a0:	00140513          	addi	a0,s0,1
    46a4:	7fe57513          	andi	a0,a0,2046
    46a8:	08051863          	bnez	a0,4738 <__adddf3+0x5b4>
    46ac:	00b7e833          	or	a6,a5,a1
    46b0:	00c76533          	or	a0,a4,a2
    46b4:	06041263          	bnez	s0,4718 <__adddf3+0x594>
    46b8:	00081c63          	bnez	a6,46d0 <__adddf3+0x54c>
    46bc:	26050663          	beqz	a0,4928 <__adddf3+0x7a4>
    46c0:	00070793          	mv	a5,a4
    46c4:	00060593          	mv	a1,a2
    46c8:	00068493          	mv	s1,a3
    46cc:	d75ff06f          	j	4440 <__adddf3+0x2bc>
    46d0:	d60508e3          	beqz	a0,4440 <__adddf3+0x2bc>
    46d4:	40c58833          	sub	a6,a1,a2
    46d8:	0105b8b3          	sltu	a7,a1,a6
    46dc:	40e78533          	sub	a0,a5,a4
    46e0:	41150533          	sub	a0,a0,a7
    46e4:	008008b7          	lui	a7,0x800
    46e8:	011578b3          	and	a7,a0,a7
    46ec:	00088c63          	beqz	a7,4704 <__adddf3+0x580>
    46f0:	40b605b3          	sub	a1,a2,a1
    46f4:	40f707b3          	sub	a5,a4,a5
    46f8:	00b63633          	sltu	a2,a2,a1
    46fc:	40c787b3          	sub	a5,a5,a2
    4700:	fc9ff06f          	j	46c8 <__adddf3+0x544>
    4704:	00a865b3          	or	a1,a6,a0
    4708:	22058863          	beqz	a1,4938 <__adddf3+0x7b4>
    470c:	00050793          	mv	a5,a0
    4710:	00080593          	mv	a1,a6
    4714:	d2dff06f          	j	4440 <__adddf3+0x2bc>
    4718:	00081c63          	bnez	a6,4730 <__adddf3+0x5ac>
    471c:	22050263          	beqz	a0,4940 <__adddf3+0x7bc>
    4720:	00070793          	mv	a5,a4
    4724:	00060593          	mv	a1,a2
    4728:	00068493          	mv	s1,a3
    472c:	afdff06f          	j	4228 <__adddf3+0xa4>
    4730:	ae050ce3          	beqz	a0,4228 <__adddf3+0xa4>
    4734:	d41ff06f          	j	4474 <__adddf3+0x2f0>
    4738:	40c589b3          	sub	s3,a1,a2
    473c:	0135b533          	sltu	a0,a1,s3
    4740:	40e78933          	sub	s2,a5,a4
    4744:	40a90933          	sub	s2,s2,a0
    4748:	00800537          	lui	a0,0x800
    474c:	00a97533          	and	a0,s2,a0
    4750:	08050463          	beqz	a0,47d8 <__adddf3+0x654>
    4754:	40b609b3          	sub	s3,a2,a1
    4758:	40f707b3          	sub	a5,a4,a5
    475c:	01363633          	sltu	a2,a2,s3
    4760:	40c78933          	sub	s2,a5,a2
    4764:	00068493          	mv	s1,a3
    4768:	08090263          	beqz	s2,47ec <__adddf3+0x668>
    476c:	00090513          	mv	a0,s2
    4770:	26d010ef          	jal	ra,61dc <__clzsi2>
    4774:	ff850713          	addi	a4,a0,-8 # 7ffff8 <__heap_start+0x7f3678>
    4778:	01f00793          	li	a5,31
    477c:	08e7c063          	blt	a5,a4,47fc <__adddf3+0x678>
    4780:	02000793          	li	a5,32
    4784:	40e787b3          	sub	a5,a5,a4
    4788:	00e91933          	sll	s2,s2,a4
    478c:	00f9d7b3          	srl	a5,s3,a5
    4790:	0127e7b3          	or	a5,a5,s2
    4794:	00e995b3          	sll	a1,s3,a4
    4798:	0a874463          	blt	a4,s0,4840 <__adddf3+0x6bc>
    479c:	40870733          	sub	a4,a4,s0
    47a0:	00170693          	addi	a3,a4,1
    47a4:	01f00613          	li	a2,31
    47a8:	06d64263          	blt	a2,a3,480c <__adddf3+0x688>
    47ac:	02000713          	li	a4,32
    47b0:	40d70733          	sub	a4,a4,a3
    47b4:	00e79633          	sll	a2,a5,a4
    47b8:	00d5d533          	srl	a0,a1,a3
    47bc:	00e595b3          	sll	a1,a1,a4
    47c0:	00a66633          	or	a2,a2,a0
    47c4:	00b035b3          	snez	a1,a1
    47c8:	00b665b3          	or	a1,a2,a1
    47cc:	00d7d7b3          	srl	a5,a5,a3
    47d0:	00000413          	li	s0,0
    47d4:	c6dff06f          	j	4440 <__adddf3+0x2bc>
    47d8:	0129e5b3          	or	a1,s3,s2
    47dc:	f80596e3          	bnez	a1,4768 <__adddf3+0x5e4>
    47e0:	00000793          	li	a5,0
    47e4:	00000413          	li	s0,0
    47e8:	1480006f          	j	4930 <__adddf3+0x7ac>
    47ec:	00098513          	mv	a0,s3
    47f0:	1ed010ef          	jal	ra,61dc <__clzsi2>
    47f4:	02050513          	addi	a0,a0,32
    47f8:	f7dff06f          	j	4774 <__adddf3+0x5f0>
    47fc:	fd850793          	addi	a5,a0,-40
    4800:	00f997b3          	sll	a5,s3,a5
    4804:	00000593          	li	a1,0
    4808:	f91ff06f          	j	4798 <__adddf3+0x614>
    480c:	fe170713          	addi	a4,a4,-31
    4810:	02000613          	li	a2,32
    4814:	00e7d733          	srl	a4,a5,a4
    4818:	00000513          	li	a0,0
    481c:	00c68863          	beq	a3,a2,482c <__adddf3+0x6a8>
    4820:	04000513          	li	a0,64
    4824:	40d50533          	sub	a0,a0,a3
    4828:	00a79533          	sll	a0,a5,a0
    482c:	00a5e533          	or	a0,a1,a0
    4830:	00a03533          	snez	a0,a0
    4834:	00a765b3          	or	a1,a4,a0
    4838:	00000793          	li	a5,0
    483c:	f95ff06f          	j	47d0 <__adddf3+0x64c>
    4840:	40e40433          	sub	s0,s0,a4
    4844:	ff800737          	lui	a4,0xff800
    4848:	fff70713          	addi	a4,a4,-1 # ff7fffff <__heap_start+0xff7f367f>
    484c:	00e7f7b3          	and	a5,a5,a4
    4850:	bf1ff06f          	j	4440 <__adddf3+0x2bc>
    4854:	00070793          	mv	a5,a4
    4858:	00060593          	mv	a1,a2
    485c:	00050413          	mv	s0,a0
    4860:	be1ff06f          	j	4440 <__adddf3+0x2bc>
    4864:	00070793          	mv	a5,a4
    4868:	00060593          	mv	a1,a2
    486c:	bd5ff06f          	j	4440 <__adddf3+0x2bc>
    4870:	7ff00413          	li	s0,2047
    4874:	00000793          	li	a5,0
    4878:	00000593          	li	a1,0
    487c:	00800737          	lui	a4,0x800
    4880:	00e7f733          	and	a4,a5,a4
    4884:	00070e63          	beqz	a4,48a0 <__adddf3+0x71c>
    4888:	00140413          	addi	s0,s0,1
    488c:	7ff00713          	li	a4,2047
    4890:	0ce40063          	beq	s0,a4,4950 <__adddf3+0x7cc>
    4894:	ff800737          	lui	a4,0xff800
    4898:	fff70713          	addi	a4,a4,-1 # ff7fffff <__heap_start+0xff7f367f>
    489c:	00e7f7b3          	and	a5,a5,a4
    48a0:	01d79713          	slli	a4,a5,0x1d
    48a4:	0035d513          	srli	a0,a1,0x3
    48a8:	00a76533          	or	a0,a4,a0
    48ac:	7ff00713          	li	a4,2047
    48b0:	0037d793          	srli	a5,a5,0x3
    48b4:	00e41e63          	bne	s0,a4,48d0 <__adddf3+0x74c>
    48b8:	00f56533          	or	a0,a0,a5
    48bc:	00000793          	li	a5,0
    48c0:	00050863          	beqz	a0,48d0 <__adddf3+0x74c>
    48c4:	000807b7          	lui	a5,0x80
    48c8:	00000513          	li	a0,0
    48cc:	00000493          	li	s1,0
    48d0:	01441713          	slli	a4,s0,0x14
    48d4:	7ff006b7          	lui	a3,0x7ff00
    48d8:	00c79793          	slli	a5,a5,0xc
    48dc:	01c12083          	lw	ra,28(sp)
    48e0:	01812403          	lw	s0,24(sp)
    48e4:	00d77733          	and	a4,a4,a3
    48e8:	00c7d793          	srli	a5,a5,0xc
    48ec:	01f49493          	slli	s1,s1,0x1f
    48f0:	00f767b3          	or	a5,a4,a5
    48f4:	0097e733          	or	a4,a5,s1
    48f8:	01012903          	lw	s2,16(sp)
    48fc:	01412483          	lw	s1,20(sp)
    4900:	00c12983          	lw	s3,12(sp)
    4904:	00070593          	mv	a1,a4
    4908:	02010113          	addi	sp,sp,32
    490c:	00008067          	ret
    4910:	00080413          	mv	s0,a6
    4914:	b2dff06f          	j	4440 <__adddf3+0x2bc>
    4918:	00070793          	mv	a5,a4
    491c:	00060593          	mv	a1,a2
    4920:	00050413          	mv	s0,a0
    4924:	da5ff06f          	j	46c8 <__adddf3+0x544>
    4928:	00000793          	li	a5,0
    492c:	00000593          	li	a1,0
    4930:	00000493          	li	s1,0
    4934:	f49ff06f          	j	487c <__adddf3+0x6f8>
    4938:	00000793          	li	a5,0
    493c:	ff5ff06f          	j	4930 <__adddf3+0x7ac>
    4940:	00000593          	li	a1,0
    4944:	00000493          	li	s1,0
    4948:	004007b7          	lui	a5,0x400
    494c:	b35ff06f          	j	4480 <__adddf3+0x2fc>
    4950:	00000793          	li	a5,0
    4954:	00000593          	li	a1,0
    4958:	f49ff06f          	j	48a0 <__adddf3+0x71c>

0000495c <__divdf3>:
    495c:	fd010113          	addi	sp,sp,-48
    4960:	03212023          	sw	s2,32(sp)
    4964:	0145d913          	srli	s2,a1,0x14
    4968:	02912223          	sw	s1,36(sp)
    496c:	01312e23          	sw	s3,28(sp)
    4970:	01412c23          	sw	s4,24(sp)
    4974:	01612823          	sw	s6,16(sp)
    4978:	01812423          	sw	s8,8(sp)
    497c:	00c59493          	slli	s1,a1,0xc
    4980:	02112623          	sw	ra,44(sp)
    4984:	02812423          	sw	s0,40(sp)
    4988:	01512a23          	sw	s5,20(sp)
    498c:	01712623          	sw	s7,12(sp)
    4990:	7ff97913          	andi	s2,s2,2047
    4994:	00050a13          	mv	s4,a0
    4998:	00060b13          	mv	s6,a2
    499c:	00068c13          	mv	s8,a3
    49a0:	00c4d493          	srli	s1,s1,0xc
    49a4:	01f5d993          	srli	s3,a1,0x1f
    49a8:	0a090063          	beqz	s2,4a48 <__divdf3+0xec>
    49ac:	7ff00793          	li	a5,2047
    49b0:	0ef90e63          	beq	s2,a5,4aac <__divdf3+0x150>
    49b4:	01d55a93          	srli	s5,a0,0x1d
    49b8:	00349493          	slli	s1,s1,0x3
    49bc:	009ae4b3          	or	s1,s5,s1
    49c0:	00800ab7          	lui	s5,0x800
    49c4:	0154eab3          	or	s5,s1,s5
    49c8:	00351413          	slli	s0,a0,0x3
    49cc:	c0190913          	addi	s2,s2,-1023
    49d0:	00000b93          	li	s7,0
    49d4:	00cc1513          	slli	a0,s8,0xc
    49d8:	00c55493          	srli	s1,a0,0xc
    49dc:	014c5513          	srli	a0,s8,0x14
    49e0:	7ff57593          	andi	a1,a0,2047
    49e4:	01fc5c13          	srli	s8,s8,0x1f
    49e8:	10058063          	beqz	a1,4ae8 <__divdf3+0x18c>
    49ec:	7ff00793          	li	a5,2047
    49f0:	16f58263          	beq	a1,a5,4b54 <__divdf3+0x1f8>
    49f4:	00349513          	slli	a0,s1,0x3
    49f8:	01db5793          	srli	a5,s6,0x1d
    49fc:	00a7e533          	or	a0,a5,a0
    4a00:	008004b7          	lui	s1,0x800
    4a04:	009564b3          	or	s1,a0,s1
    4a08:	003b1f93          	slli	t6,s6,0x3
    4a0c:	c0158513          	addi	a0,a1,-1023
    4a10:	00000793          	li	a5,0
    4a14:	002b9713          	slli	a4,s7,0x2
    4a18:	00f76733          	or	a4,a4,a5
    4a1c:	fff70713          	addi	a4,a4,-1
    4a20:	00e00613          	li	a2,14
    4a24:	0189c6b3          	xor	a3,s3,s8
    4a28:	40a905b3          	sub	a1,s2,a0
    4a2c:	16e66063          	bltu	a2,a4,4b8c <__divdf3+0x230>
    4a30:	00008637          	lui	a2,0x8
    4a34:	00271713          	slli	a4,a4,0x2
    4a38:	78860613          	addi	a2,a2,1928 # 8788 <errpat+0x1bc>
    4a3c:	00c70733          	add	a4,a4,a2
    4a40:	00072703          	lw	a4,0(a4)
    4a44:	00070067          	jr	a4
    4a48:	00a4eab3          	or	s5,s1,a0
    4a4c:	060a8e63          	beqz	s5,4ac8 <__divdf3+0x16c>
    4a50:	04048063          	beqz	s1,4a90 <__divdf3+0x134>
    4a54:	00048513          	mv	a0,s1
    4a58:	784010ef          	jal	ra,61dc <__clzsi2>
    4a5c:	ff550793          	addi	a5,a0,-11
    4a60:	01c00713          	li	a4,28
    4a64:	02f74c63          	blt	a4,a5,4a9c <__divdf3+0x140>
    4a68:	01d00a93          	li	s5,29
    4a6c:	ff850413          	addi	s0,a0,-8
    4a70:	40fa8ab3          	sub	s5,s5,a5
    4a74:	008494b3          	sll	s1,s1,s0
    4a78:	015a5ab3          	srl	s5,s4,s5
    4a7c:	009aeab3          	or	s5,s5,s1
    4a80:	008a1433          	sll	s0,s4,s0
    4a84:	c0d00593          	li	a1,-1011
    4a88:	40a58933          	sub	s2,a1,a0
    4a8c:	f45ff06f          	j	49d0 <__divdf3+0x74>
    4a90:	74c010ef          	jal	ra,61dc <__clzsi2>
    4a94:	02050513          	addi	a0,a0,32
    4a98:	fc5ff06f          	j	4a5c <__divdf3+0x100>
    4a9c:	fd850493          	addi	s1,a0,-40
    4aa0:	009a1ab3          	sll	s5,s4,s1
    4aa4:	00000413          	li	s0,0
    4aa8:	fddff06f          	j	4a84 <__divdf3+0x128>
    4aac:	00a4eab3          	or	s5,s1,a0
    4ab0:	020a8463          	beqz	s5,4ad8 <__divdf3+0x17c>
    4ab4:	00050413          	mv	s0,a0
    4ab8:	00048a93          	mv	s5,s1
    4abc:	7ff00913          	li	s2,2047
    4ac0:	00300b93          	li	s7,3
    4ac4:	f11ff06f          	j	49d4 <__divdf3+0x78>
    4ac8:	00000413          	li	s0,0
    4acc:	00000913          	li	s2,0
    4ad0:	00100b93          	li	s7,1
    4ad4:	f01ff06f          	j	49d4 <__divdf3+0x78>
    4ad8:	00000413          	li	s0,0
    4adc:	7ff00913          	li	s2,2047
    4ae0:	00200b93          	li	s7,2
    4ae4:	ef1ff06f          	j	49d4 <__divdf3+0x78>
    4ae8:	0164efb3          	or	t6,s1,s6
    4aec:	080f8063          	beqz	t6,4b6c <__divdf3+0x210>
    4af0:	04048263          	beqz	s1,4b34 <__divdf3+0x1d8>
    4af4:	00048513          	mv	a0,s1
    4af8:	6e4010ef          	jal	ra,61dc <__clzsi2>
    4afc:	00050593          	mv	a1,a0
    4b00:	ff558793          	addi	a5,a1,-11
    4b04:	01c00713          	li	a4,28
    4b08:	02f74e63          	blt	a4,a5,4b44 <__divdf3+0x1e8>
    4b0c:	01d00693          	li	a3,29
    4b10:	ff858f93          	addi	t6,a1,-8
    4b14:	40f686b3          	sub	a3,a3,a5
    4b18:	01f49533          	sll	a0,s1,t6
    4b1c:	00db56b3          	srl	a3,s6,a3
    4b20:	00a6e4b3          	or	s1,a3,a0
    4b24:	01fb1fb3          	sll	t6,s6,t6
    4b28:	c0d00693          	li	a3,-1011
    4b2c:	40b68533          	sub	a0,a3,a1
    4b30:	ee1ff06f          	j	4a10 <__divdf3+0xb4>
    4b34:	000b0513          	mv	a0,s6
    4b38:	6a4010ef          	jal	ra,61dc <__clzsi2>
    4b3c:	02050593          	addi	a1,a0,32
    4b40:	fc1ff06f          	j	4b00 <__divdf3+0x1a4>
    4b44:	fd858513          	addi	a0,a1,-40
    4b48:	00ab14b3          	sll	s1,s6,a0
    4b4c:	00000f93          	li	t6,0
    4b50:	fd9ff06f          	j	4b28 <__divdf3+0x1cc>
    4b54:	0164efb3          	or	t6,s1,s6
    4b58:	020f8263          	beqz	t6,4b7c <__divdf3+0x220>
    4b5c:	000b0f93          	mv	t6,s6
    4b60:	7ff00513          	li	a0,2047
    4b64:	00300793          	li	a5,3
    4b68:	eadff06f          	j	4a14 <__divdf3+0xb8>
    4b6c:	00000493          	li	s1,0
    4b70:	00000513          	li	a0,0
    4b74:	00100793          	li	a5,1
    4b78:	e9dff06f          	j	4a14 <__divdf3+0xb8>
    4b7c:	00000493          	li	s1,0
    4b80:	7ff00513          	li	a0,2047
    4b84:	00200793          	li	a5,2
    4b88:	e8dff06f          	j	4a14 <__divdf3+0xb8>
    4b8c:	0154e663          	bltu	s1,s5,4b98 <__divdf3+0x23c>
    4b90:	349a9e63          	bne	s5,s1,4eec <__divdf3+0x590>
    4b94:	35f46c63          	bltu	s0,t6,4eec <__divdf3+0x590>
    4b98:	01fa9613          	slli	a2,s5,0x1f
    4b9c:	00145713          	srli	a4,s0,0x1
    4ba0:	01f41793          	slli	a5,s0,0x1f
    4ba4:	001ada93          	srli	s5,s5,0x1
    4ba8:	00e66433          	or	s0,a2,a4
    4bac:	00849513          	slli	a0,s1,0x8
    4bb0:	018fd893          	srli	a7,t6,0x18
    4bb4:	00a8e8b3          	or	a7,a7,a0
    4bb8:	01055513          	srli	a0,a0,0x10
    4bbc:	02aade33          	divu	t3,s5,a0
    4bc0:	01089e93          	slli	t4,a7,0x10
    4bc4:	010ede93          	srli	t4,t4,0x10
    4bc8:	01045713          	srli	a4,s0,0x10
    4bcc:	008f9313          	slli	t1,t6,0x8
    4bd0:	02aafab3          	remu	s5,s5,a0
    4bd4:	000e0613          	mv	a2,t3
    4bd8:	03ce8833          	mul	a6,t4,t3
    4bdc:	010a9a93          	slli	s5,s5,0x10
    4be0:	01576733          	or	a4,a4,s5
    4be4:	01077e63          	bgeu	a4,a6,4c00 <__divdf3+0x2a4>
    4be8:	01170733          	add	a4,a4,a7
    4bec:	fffe0613          	addi	a2,t3,-1
    4bf0:	01176863          	bltu	a4,a7,4c00 <__divdf3+0x2a4>
    4bf4:	01077663          	bgeu	a4,a6,4c00 <__divdf3+0x2a4>
    4bf8:	ffee0613          	addi	a2,t3,-2
    4bfc:	01170733          	add	a4,a4,a7
    4c00:	41070733          	sub	a4,a4,a6
    4c04:	02a75e33          	divu	t3,a4,a0
    4c08:	01041413          	slli	s0,s0,0x10
    4c0c:	01045413          	srli	s0,s0,0x10
    4c10:	02a77733          	remu	a4,a4,a0
    4c14:	000e0293          	mv	t0,t3
    4c18:	03ce8833          	mul	a6,t4,t3
    4c1c:	01071713          	slli	a4,a4,0x10
    4c20:	00e46733          	or	a4,s0,a4
    4c24:	01077e63          	bgeu	a4,a6,4c40 <__divdf3+0x2e4>
    4c28:	01170733          	add	a4,a4,a7
    4c2c:	fffe0293          	addi	t0,t3,-1
    4c30:	01176863          	bltu	a4,a7,4c40 <__divdf3+0x2e4>
    4c34:	01077663          	bgeu	a4,a6,4c40 <__divdf3+0x2e4>
    4c38:	ffee0293          	addi	t0,t3,-2
    4c3c:	01170733          	add	a4,a4,a7
    4c40:	41070433          	sub	s0,a4,a6
    4c44:	01061613          	slli	a2,a2,0x10
    4c48:	00010837          	lui	a6,0x10
    4c4c:	005662b3          	or	t0,a2,t0
    4c50:	fff80e13          	addi	t3,a6,-1 # ffff <__heap_start+0x367f>
    4c54:	0102d613          	srli	a2,t0,0x10
    4c58:	01c2f733          	and	a4,t0,t3
    4c5c:	01035f13          	srli	t5,t1,0x10
    4c60:	01c37e33          	and	t3,t1,t3
    4c64:	02ee03b3          	mul	t2,t3,a4
    4c68:	03c604b3          	mul	s1,a2,t3
    4c6c:	02ef0733          	mul	a4,t5,a4
    4c70:	03e60fb3          	mul	t6,a2,t5
    4c74:	00970633          	add	a2,a4,s1
    4c78:	0103d713          	srli	a4,t2,0x10
    4c7c:	00c70733          	add	a4,a4,a2
    4c80:	00977463          	bgeu	a4,s1,4c88 <__divdf3+0x32c>
    4c84:	010f8fb3          	add	t6,t6,a6
    4c88:	01075613          	srli	a2,a4,0x10
    4c8c:	01f60633          	add	a2,a2,t6
    4c90:	00010fb7          	lui	t6,0x10
    4c94:	ffff8f93          	addi	t6,t6,-1 # ffff <__heap_start+0x367f>
    4c98:	01f77833          	and	a6,a4,t6
    4c9c:	01081813          	slli	a6,a6,0x10
    4ca0:	01f3f3b3          	and	t2,t2,t6
    4ca4:	00780833          	add	a6,a6,t2
    4ca8:	00c46863          	bltu	s0,a2,4cb8 <__divdf3+0x35c>
    4cac:	00028493          	mv	s1,t0
    4cb0:	04c41463          	bne	s0,a2,4cf8 <__divdf3+0x39c>
    4cb4:	0507f263          	bgeu	a5,a6,4cf8 <__divdf3+0x39c>
    4cb8:	006787b3          	add	a5,a5,t1
    4cbc:	0067b733          	sltu	a4,a5,t1
    4cc0:	01170733          	add	a4,a4,a7
    4cc4:	00e40433          	add	s0,s0,a4
    4cc8:	fff28493          	addi	s1,t0,-1
    4ccc:	0088e663          	bltu	a7,s0,4cd8 <__divdf3+0x37c>
    4cd0:	02889463          	bne	a7,s0,4cf8 <__divdf3+0x39c>
    4cd4:	0267e263          	bltu	a5,t1,4cf8 <__divdf3+0x39c>
    4cd8:	00c46663          	bltu	s0,a2,4ce4 <__divdf3+0x388>
    4cdc:	00861e63          	bne	a2,s0,4cf8 <__divdf3+0x39c>
    4ce0:	0107fc63          	bgeu	a5,a6,4cf8 <__divdf3+0x39c>
    4ce4:	006787b3          	add	a5,a5,t1
    4ce8:	0067b733          	sltu	a4,a5,t1
    4cec:	01170733          	add	a4,a4,a7
    4cf0:	ffe28493          	addi	s1,t0,-2
    4cf4:	00e40433          	add	s0,s0,a4
    4cf8:	41078833          	sub	a6,a5,a6
    4cfc:	40c40433          	sub	s0,s0,a2
    4d00:	0107b7b3          	sltu	a5,a5,a6
    4d04:	40f40433          	sub	s0,s0,a5
    4d08:	fff00f93          	li	t6,-1
    4d0c:	12888463          	beq	a7,s0,4e34 <__divdf3+0x4d8>
    4d10:	02a45fb3          	divu	t6,s0,a0
    4d14:	01085713          	srli	a4,a6,0x10
    4d18:	02a47433          	remu	s0,s0,a0
    4d1c:	000f8613          	mv	a2,t6
    4d20:	03fe87b3          	mul	a5,t4,t6
    4d24:	01041413          	slli	s0,s0,0x10
    4d28:	00876433          	or	s0,a4,s0
    4d2c:	00f47e63          	bgeu	s0,a5,4d48 <__divdf3+0x3ec>
    4d30:	01140433          	add	s0,s0,a7
    4d34:	ffff8613          	addi	a2,t6,-1
    4d38:	01146863          	bltu	s0,a7,4d48 <__divdf3+0x3ec>
    4d3c:	00f47663          	bgeu	s0,a5,4d48 <__divdf3+0x3ec>
    4d40:	ffef8613          	addi	a2,t6,-2
    4d44:	01140433          	add	s0,s0,a7
    4d48:	40f40433          	sub	s0,s0,a5
    4d4c:	02a45733          	divu	a4,s0,a0
    4d50:	01081813          	slli	a6,a6,0x10
    4d54:	01085813          	srli	a6,a6,0x10
    4d58:	02a47433          	remu	s0,s0,a0
    4d5c:	00070793          	mv	a5,a4
    4d60:	02ee8eb3          	mul	t4,t4,a4
    4d64:	01041413          	slli	s0,s0,0x10
    4d68:	00886433          	or	s0,a6,s0
    4d6c:	01d47e63          	bgeu	s0,t4,4d88 <__divdf3+0x42c>
    4d70:	01140433          	add	s0,s0,a7
    4d74:	fff70793          	addi	a5,a4,-1
    4d78:	01146863          	bltu	s0,a7,4d88 <__divdf3+0x42c>
    4d7c:	01d47663          	bgeu	s0,t4,4d88 <__divdf3+0x42c>
    4d80:	ffe70793          	addi	a5,a4,-2
    4d84:	01140433          	add	s0,s0,a7
    4d88:	01061613          	slli	a2,a2,0x10
    4d8c:	00f66633          	or	a2,a2,a5
    4d90:	01061793          	slli	a5,a2,0x10
    4d94:	0107d793          	srli	a5,a5,0x10
    4d98:	01065713          	srli	a4,a2,0x10
    4d9c:	02ef0833          	mul	a6,t5,a4
    4da0:	41d40433          	sub	s0,s0,t4
    4da4:	02ff0f33          	mul	t5,t5,a5
    4da8:	03c78eb3          	mul	t4,a5,t3
    4dac:	03c70e33          	mul	t3,a4,t3
    4db0:	010ed793          	srli	a5,t4,0x10
    4db4:	01cf0f33          	add	t5,t5,t3
    4db8:	01e787b3          	add	a5,a5,t5
    4dbc:	01c7f663          	bgeu	a5,t3,4dc8 <__divdf3+0x46c>
    4dc0:	00010737          	lui	a4,0x10
    4dc4:	00e80833          	add	a6,a6,a4
    4dc8:	0107d713          	srli	a4,a5,0x10
    4dcc:	01070733          	add	a4,a4,a6
    4dd0:	00010837          	lui	a6,0x10
    4dd4:	fff80813          	addi	a6,a6,-1 # ffff <__heap_start+0x367f>
    4dd8:	0107f533          	and	a0,a5,a6
    4ddc:	01051513          	slli	a0,a0,0x10
    4de0:	010efeb3          	and	t4,t4,a6
    4de4:	01d50533          	add	a0,a0,t4
    4de8:	00e46863          	bltu	s0,a4,4df8 <__divdf3+0x49c>
    4dec:	24e41463          	bne	s0,a4,5034 <__divdf3+0x6d8>
    4df0:	00060f93          	mv	t6,a2
    4df4:	04050063          	beqz	a0,4e34 <__divdf3+0x4d8>
    4df8:	00888433          	add	s0,a7,s0
    4dfc:	fff60f93          	addi	t6,a2,-1
    4e00:	03146463          	bltu	s0,a7,4e28 <__divdf3+0x4cc>
    4e04:	00e46663          	bltu	s0,a4,4e10 <__divdf3+0x4b4>
    4e08:	22e41463          	bne	s0,a4,5030 <__divdf3+0x6d4>
    4e0c:	02a37063          	bgeu	t1,a0,4e2c <__divdf3+0x4d0>
    4e10:	00131793          	slli	a5,t1,0x1
    4e14:	0067b333          	sltu	t1,a5,t1
    4e18:	011308b3          	add	a7,t1,a7
    4e1c:	ffe60f93          	addi	t6,a2,-2
    4e20:	01140433          	add	s0,s0,a7
    4e24:	00078313          	mv	t1,a5
    4e28:	00e41463          	bne	s0,a4,4e30 <__divdf3+0x4d4>
    4e2c:	00650463          	beq	a0,t1,4e34 <__divdf3+0x4d8>
    4e30:	001fef93          	ori	t6,t6,1
    4e34:	3ff58793          	addi	a5,a1,1023
    4e38:	10f05a63          	blez	a5,4f4c <__divdf3+0x5f0>
    4e3c:	007ff713          	andi	a4,t6,7
    4e40:	02070063          	beqz	a4,4e60 <__divdf3+0x504>
    4e44:	00fff713          	andi	a4,t6,15
    4e48:	00400613          	li	a2,4
    4e4c:	00c70a63          	beq	a4,a2,4e60 <__divdf3+0x504>
    4e50:	004f8613          	addi	a2,t6,4
    4e54:	01f63fb3          	sltu	t6,a2,t6
    4e58:	01f484b3          	add	s1,s1,t6
    4e5c:	00060f93          	mv	t6,a2
    4e60:	01000737          	lui	a4,0x1000
    4e64:	00e4f733          	and	a4,s1,a4
    4e68:	00070a63          	beqz	a4,4e7c <__divdf3+0x520>
    4e6c:	ff0007b7          	lui	a5,0xff000
    4e70:	fff78793          	addi	a5,a5,-1 # feffffff <__heap_start+0xfeff367f>
    4e74:	00f4f4b3          	and	s1,s1,a5
    4e78:	40058793          	addi	a5,a1,1024
    4e7c:	7fe00713          	li	a4,2046
    4e80:	0af74063          	blt	a4,a5,4f20 <__divdf3+0x5c4>
    4e84:	003fdf93          	srli	t6,t6,0x3
    4e88:	01d49713          	slli	a4,s1,0x1d
    4e8c:	01f76733          	or	a4,a4,t6
    4e90:	0034d513          	srli	a0,s1,0x3
    4e94:	01479793          	slli	a5,a5,0x14
    4e98:	7ff00637          	lui	a2,0x7ff00
    4e9c:	00c51513          	slli	a0,a0,0xc
    4ea0:	02c12083          	lw	ra,44(sp)
    4ea4:	02812403          	lw	s0,40(sp)
    4ea8:	00c7f7b3          	and	a5,a5,a2
    4eac:	00c55513          	srli	a0,a0,0xc
    4eb0:	00a7e533          	or	a0,a5,a0
    4eb4:	01f69693          	slli	a3,a3,0x1f
    4eb8:	00d567b3          	or	a5,a0,a3
    4ebc:	02412483          	lw	s1,36(sp)
    4ec0:	02012903          	lw	s2,32(sp)
    4ec4:	01c12983          	lw	s3,28(sp)
    4ec8:	01812a03          	lw	s4,24(sp)
    4ecc:	01412a83          	lw	s5,20(sp)
    4ed0:	01012b03          	lw	s6,16(sp)
    4ed4:	00c12b83          	lw	s7,12(sp)
    4ed8:	00812c03          	lw	s8,8(sp)
    4edc:	00070513          	mv	a0,a4
    4ee0:	00078593          	mv	a1,a5
    4ee4:	03010113          	addi	sp,sp,48
    4ee8:	00008067          	ret
    4eec:	fff58593          	addi	a1,a1,-1
    4ef0:	00000793          	li	a5,0
    4ef4:	cb9ff06f          	j	4bac <__divdf3+0x250>
    4ef8:	00098693          	mv	a3,s3
    4efc:	000a8493          	mv	s1,s5
    4f00:	00040f93          	mv	t6,s0
    4f04:	000b8793          	mv	a5,s7
    4f08:	00300713          	li	a4,3
    4f0c:	0ee78a63          	beq	a5,a4,5000 <__divdf3+0x6a4>
    4f10:	00100713          	li	a4,1
    4f14:	10e78063          	beq	a5,a4,5014 <__divdf3+0x6b8>
    4f18:	00200713          	li	a4,2
    4f1c:	f0e79ce3          	bne	a5,a4,4e34 <__divdf3+0x4d8>
    4f20:	00000513          	li	a0,0
    4f24:	00000713          	li	a4,0
    4f28:	7ff00793          	li	a5,2047
    4f2c:	f69ff06f          	j	4e94 <__divdf3+0x538>
    4f30:	000c0693          	mv	a3,s8
    4f34:	fd5ff06f          	j	4f08 <__divdf3+0x5ac>
    4f38:	000804b7          	lui	s1,0x80
    4f3c:	00000f93          	li	t6,0
    4f40:	00000693          	li	a3,0
    4f44:	00300793          	li	a5,3
    4f48:	fc1ff06f          	j	4f08 <__divdf3+0x5ac>
    4f4c:	00100513          	li	a0,1
    4f50:	40f50533          	sub	a0,a0,a5
    4f54:	03800713          	li	a4,56
    4f58:	0aa74e63          	blt	a4,a0,5014 <__divdf3+0x6b8>
    4f5c:	01f00713          	li	a4,31
    4f60:	06a74663          	blt	a4,a0,4fcc <__divdf3+0x670>
    4f64:	41e58593          	addi	a1,a1,1054
    4f68:	00b497b3          	sll	a5,s1,a1
    4f6c:	00afd733          	srl	a4,t6,a0
    4f70:	00bf95b3          	sll	a1,t6,a1
    4f74:	00e7e7b3          	or	a5,a5,a4
    4f78:	00b035b3          	snez	a1,a1
    4f7c:	00b7e7b3          	or	a5,a5,a1
    4f80:	00a4d533          	srl	a0,s1,a0
    4f84:	0077f713          	andi	a4,a5,7
    4f88:	02070063          	beqz	a4,4fa8 <__divdf3+0x64c>
    4f8c:	00f7f713          	andi	a4,a5,15
    4f90:	00400613          	li	a2,4
    4f94:	00c70a63          	beq	a4,a2,4fa8 <__divdf3+0x64c>
    4f98:	00478713          	addi	a4,a5,4
    4f9c:	00f737b3          	sltu	a5,a4,a5
    4fa0:	00f50533          	add	a0,a0,a5
    4fa4:	00070793          	mv	a5,a4
    4fa8:	00800737          	lui	a4,0x800
    4fac:	00e57733          	and	a4,a0,a4
    4fb0:	06071863          	bnez	a4,5020 <__divdf3+0x6c4>
    4fb4:	01d51713          	slli	a4,a0,0x1d
    4fb8:	0037d793          	srli	a5,a5,0x3
    4fbc:	00f76733          	or	a4,a4,a5
    4fc0:	00355513          	srli	a0,a0,0x3
    4fc4:	00000793          	li	a5,0
    4fc8:	ecdff06f          	j	4e94 <__divdf3+0x538>
    4fcc:	fe100713          	li	a4,-31
    4fd0:	40f707b3          	sub	a5,a4,a5
    4fd4:	02000613          	li	a2,32
    4fd8:	00f4d7b3          	srl	a5,s1,a5
    4fdc:	00000713          	li	a4,0
    4fe0:	00c50663          	beq	a0,a2,4fec <__divdf3+0x690>
    4fe4:	43e58713          	addi	a4,a1,1086
    4fe8:	00e49733          	sll	a4,s1,a4
    4fec:	01f76733          	or	a4,a4,t6
    4ff0:	00e03733          	snez	a4,a4
    4ff4:	00e7e7b3          	or	a5,a5,a4
    4ff8:	00000513          	li	a0,0
    4ffc:	f89ff06f          	j	4f84 <__divdf3+0x628>
    5000:	00080537          	lui	a0,0x80
    5004:	00000713          	li	a4,0
    5008:	7ff00793          	li	a5,2047
    500c:	00000693          	li	a3,0
    5010:	e85ff06f          	j	4e94 <__divdf3+0x538>
    5014:	00000513          	li	a0,0
    5018:	00000713          	li	a4,0
    501c:	fa9ff06f          	j	4fc4 <__divdf3+0x668>
    5020:	00000513          	li	a0,0
    5024:	00000713          	li	a4,0
    5028:	00100793          	li	a5,1
    502c:	e69ff06f          	j	4e94 <__divdf3+0x538>
    5030:	000f8613          	mv	a2,t6
    5034:	00060f93          	mv	t6,a2
    5038:	df9ff06f          	j	4e30 <__divdf3+0x4d4>

0000503c <__gedf2>:
    503c:	00100737          	lui	a4,0x100
    5040:	fff70713          	addi	a4,a4,-1 # fffff <__heap_start+0xf367f>
    5044:	0145d813          	srli	a6,a1,0x14
    5048:	00b778b3          	and	a7,a4,a1
    504c:	00050793          	mv	a5,a0
    5050:	00050313          	mv	t1,a0
    5054:	7ff87813          	andi	a6,a6,2047
    5058:	01f5d513          	srli	a0,a1,0x1f
    505c:	7ff00e93          	li	t4,2047
    5060:	0146d593          	srli	a1,a3,0x14
    5064:	00d77733          	and	a4,a4,a3
    5068:	00060e13          	mv	t3,a2
    506c:	7ff5f593          	andi	a1,a1,2047
    5070:	01f6d693          	srli	a3,a3,0x1f
    5074:	01d81a63          	bne	a6,t4,5088 <__gedf2+0x4c>
    5078:	00f8eeb3          	or	t4,a7,a5
    507c:	080e8a63          	beqz	t4,5110 <__gedf2+0xd4>
    5080:	ffe00513          	li	a0,-2
    5084:	00008067          	ret
    5088:	01d59663          	bne	a1,t4,5094 <__gedf2+0x58>
    508c:	00c76eb3          	or	t4,a4,a2
    5090:	fe0e98e3          	bnez	t4,5080 <__gedf2+0x44>
    5094:	08081063          	bnez	a6,5114 <__gedf2+0xd8>
    5098:	00f8e7b3          	or	a5,a7,a5
    509c:	0017b793          	seqz	a5,a5
    50a0:	00059663          	bnez	a1,50ac <__gedf2+0x70>
    50a4:	00c76633          	or	a2,a4,a2
    50a8:	04060c63          	beqz	a2,5100 <__gedf2+0xc4>
    50ac:	00079c63          	bnez	a5,50c4 <__gedf2+0x88>
    50b0:	00d51463          	bne	a0,a3,50b8 <__gedf2+0x7c>
    50b4:	0305d063          	bge	a1,a6,50d4 <__gedf2+0x98>
    50b8:	04050063          	beqz	a0,50f8 <__gedf2+0xbc>
    50bc:	fff00513          	li	a0,-1
    50c0:	00008067          	ret
    50c4:	fff00513          	li	a0,-1
    50c8:	00068a63          	beqz	a3,50dc <__gedf2+0xa0>
    50cc:	00068513          	mv	a0,a3
    50d0:	00008067          	ret
    50d4:	00b85663          	bge	a6,a1,50e0 <__gedf2+0xa4>
    50d8:	fe0502e3          	beqz	a0,50bc <__gedf2+0x80>
    50dc:	00008067          	ret
    50e0:	fd176ce3          	bltu	a4,a7,50b8 <__gedf2+0x7c>
    50e4:	02e89263          	bne	a7,a4,5108 <__gedf2+0xcc>
    50e8:	fc6e68e3          	bltu	t3,t1,50b8 <__gedf2+0x7c>
    50ec:	ffc366e3          	bltu	t1,t3,50d8 <__gedf2+0x9c>
    50f0:	00000513          	li	a0,0
    50f4:	00008067          	ret
    50f8:	00100513          	li	a0,1
    50fc:	00008067          	ret
    5100:	fe0798e3          	bnez	a5,50f0 <__gedf2+0xb4>
    5104:	fb5ff06f          	j	50b8 <__gedf2+0x7c>
    5108:	fce8e8e3          	bltu	a7,a4,50d8 <__gedf2+0x9c>
    510c:	fe5ff06f          	j	50f0 <__gedf2+0xb4>
    5110:	f7058ee3          	beq	a1,a6,508c <__gedf2+0x50>
    5114:	f8059ee3          	bnez	a1,50b0 <__gedf2+0x74>
    5118:	00000793          	li	a5,0
    511c:	f89ff06f          	j	50a4 <__gedf2+0x68>

00005120 <__ledf2>:
    5120:	00100737          	lui	a4,0x100
    5124:	fff70713          	addi	a4,a4,-1 # fffff <__heap_start+0xf367f>
    5128:	0145d813          	srli	a6,a1,0x14
    512c:	00b778b3          	and	a7,a4,a1
    5130:	00050793          	mv	a5,a0
    5134:	00050313          	mv	t1,a0
    5138:	7ff87813          	andi	a6,a6,2047
    513c:	01f5d513          	srli	a0,a1,0x1f
    5140:	7ff00e93          	li	t4,2047
    5144:	0146d593          	srli	a1,a3,0x14
    5148:	00d77733          	and	a4,a4,a3
    514c:	00060e13          	mv	t3,a2
    5150:	7ff5f593          	andi	a1,a1,2047
    5154:	01f6d693          	srli	a3,a3,0x1f
    5158:	01d81a63          	bne	a6,t4,516c <__ledf2+0x4c>
    515c:	00f8eeb3          	or	t4,a7,a5
    5160:	080e8a63          	beqz	t4,51f4 <__ledf2+0xd4>
    5164:	00200513          	li	a0,2
    5168:	00008067          	ret
    516c:	01d59663          	bne	a1,t4,5178 <__ledf2+0x58>
    5170:	00c76eb3          	or	t4,a4,a2
    5174:	fe0e98e3          	bnez	t4,5164 <__ledf2+0x44>
    5178:	08081063          	bnez	a6,51f8 <__ledf2+0xd8>
    517c:	00f8e7b3          	or	a5,a7,a5
    5180:	0017b793          	seqz	a5,a5
    5184:	00059663          	bnez	a1,5190 <__ledf2+0x70>
    5188:	00c76633          	or	a2,a4,a2
    518c:	04060c63          	beqz	a2,51e4 <__ledf2+0xc4>
    5190:	00079c63          	bnez	a5,51a8 <__ledf2+0x88>
    5194:	00d51463          	bne	a0,a3,519c <__ledf2+0x7c>
    5198:	0305d063          	bge	a1,a6,51b8 <__ledf2+0x98>
    519c:	04050063          	beqz	a0,51dc <__ledf2+0xbc>
    51a0:	fff00513          	li	a0,-1
    51a4:	00008067          	ret
    51a8:	fff00513          	li	a0,-1
    51ac:	00068a63          	beqz	a3,51c0 <__ledf2+0xa0>
    51b0:	00068513          	mv	a0,a3
    51b4:	00008067          	ret
    51b8:	00b85663          	bge	a6,a1,51c4 <__ledf2+0xa4>
    51bc:	fe0502e3          	beqz	a0,51a0 <__ledf2+0x80>
    51c0:	00008067          	ret
    51c4:	fd176ce3          	bltu	a4,a7,519c <__ledf2+0x7c>
    51c8:	02e89263          	bne	a7,a4,51ec <__ledf2+0xcc>
    51cc:	fc6e68e3          	bltu	t3,t1,519c <__ledf2+0x7c>
    51d0:	ffc366e3          	bltu	t1,t3,51bc <__ledf2+0x9c>
    51d4:	00000513          	li	a0,0
    51d8:	00008067          	ret
    51dc:	00100513          	li	a0,1
    51e0:	00008067          	ret
    51e4:	fe0798e3          	bnez	a5,51d4 <__ledf2+0xb4>
    51e8:	fb5ff06f          	j	519c <__ledf2+0x7c>
    51ec:	fce8e8e3          	bltu	a7,a4,51bc <__ledf2+0x9c>
    51f0:	fe5ff06f          	j	51d4 <__ledf2+0xb4>
    51f4:	f7058ee3          	beq	a1,a6,5170 <__ledf2+0x50>
    51f8:	f8059ee3          	bnez	a1,5194 <__ledf2+0x74>
    51fc:	00000793          	li	a5,0
    5200:	f89ff06f          	j	5188 <__ledf2+0x68>

00005204 <__muldf3>:
    5204:	fd010113          	addi	sp,sp,-48
    5208:	01312e23          	sw	s3,28(sp)
    520c:	0145d993          	srli	s3,a1,0x14
    5210:	02812423          	sw	s0,40(sp)
    5214:	02912223          	sw	s1,36(sp)
    5218:	01412c23          	sw	s4,24(sp)
    521c:	01512a23          	sw	s5,20(sp)
    5220:	01712623          	sw	s7,12(sp)
    5224:	00c59493          	slli	s1,a1,0xc
    5228:	02112623          	sw	ra,44(sp)
    522c:	03212023          	sw	s2,32(sp)
    5230:	01612823          	sw	s6,16(sp)
    5234:	7ff9f993          	andi	s3,s3,2047
    5238:	00050413          	mv	s0,a0
    523c:	00060b93          	mv	s7,a2
    5240:	00068a93          	mv	s5,a3
    5244:	00c4d493          	srli	s1,s1,0xc
    5248:	01f5da13          	srli	s4,a1,0x1f
    524c:	0a098263          	beqz	s3,52f0 <__muldf3+0xec>
    5250:	7ff00793          	li	a5,2047
    5254:	10f98063          	beq	s3,a5,5354 <__muldf3+0x150>
    5258:	01d55793          	srli	a5,a0,0x1d
    525c:	00349493          	slli	s1,s1,0x3
    5260:	0097e4b3          	or	s1,a5,s1
    5264:	008007b7          	lui	a5,0x800
    5268:	00f4e4b3          	or	s1,s1,a5
    526c:	00351913          	slli	s2,a0,0x3
    5270:	c0198993          	addi	s3,s3,-1023
    5274:	00000b13          	li	s6,0
    5278:	014ad513          	srli	a0,s5,0x14
    527c:	00ca9413          	slli	s0,s5,0xc
    5280:	7ff57513          	andi	a0,a0,2047
    5284:	00c45413          	srli	s0,s0,0xc
    5288:	01fada93          	srli	s5,s5,0x1f
    528c:	10050063          	beqz	a0,538c <__muldf3+0x188>
    5290:	7ff00793          	li	a5,2047
    5294:	16f50063          	beq	a0,a5,53f4 <__muldf3+0x1f0>
    5298:	01dbd793          	srli	a5,s7,0x1d
    529c:	00341413          	slli	s0,s0,0x3
    52a0:	0087e433          	or	s0,a5,s0
    52a4:	008007b7          	lui	a5,0x800
    52a8:	00f46433          	or	s0,s0,a5
    52ac:	c0150513          	addi	a0,a0,-1023 # 7fc01 <__heap_start+0x73281>
    52b0:	003b9793          	slli	a5,s7,0x3
    52b4:	00000713          	li	a4,0
    52b8:	002b1693          	slli	a3,s6,0x2
    52bc:	00e6e6b3          	or	a3,a3,a4
    52c0:	00a98533          	add	a0,s3,a0
    52c4:	fff68693          	addi	a3,a3,-1 # 7fefffff <__heap_start+0x7fef367f>
    52c8:	00e00813          	li	a6,14
    52cc:	015a4633          	xor	a2,s4,s5
    52d0:	00150593          	addi	a1,a0,1
    52d4:	14d86c63          	bltu	a6,a3,542c <__muldf3+0x228>
    52d8:	00008537          	lui	a0,0x8
    52dc:	00269693          	slli	a3,a3,0x2
    52e0:	7c450513          	addi	a0,a0,1988 # 87c4 <errpat+0x1f8>
    52e4:	00a686b3          	add	a3,a3,a0
    52e8:	0006a683          	lw	a3,0(a3)
    52ec:	00068067          	jr	a3
    52f0:	00a4e933          	or	s2,s1,a0
    52f4:	06090c63          	beqz	s2,536c <__muldf3+0x168>
    52f8:	04048063          	beqz	s1,5338 <__muldf3+0x134>
    52fc:	00048513          	mv	a0,s1
    5300:	6dd000ef          	jal	ra,61dc <__clzsi2>
    5304:	ff550713          	addi	a4,a0,-11
    5308:	01c00793          	li	a5,28
    530c:	02e7cc63          	blt	a5,a4,5344 <__muldf3+0x140>
    5310:	01d00793          	li	a5,29
    5314:	ff850913          	addi	s2,a0,-8
    5318:	40e787b3          	sub	a5,a5,a4
    531c:	012494b3          	sll	s1,s1,s2
    5320:	00f457b3          	srl	a5,s0,a5
    5324:	0097e4b3          	or	s1,a5,s1
    5328:	01241933          	sll	s2,s0,s2
    532c:	c0d00993          	li	s3,-1011
    5330:	40a989b3          	sub	s3,s3,a0
    5334:	f41ff06f          	j	5274 <__muldf3+0x70>
    5338:	6a5000ef          	jal	ra,61dc <__clzsi2>
    533c:	02050513          	addi	a0,a0,32
    5340:	fc5ff06f          	j	5304 <__muldf3+0x100>
    5344:	fd850493          	addi	s1,a0,-40
    5348:	009414b3          	sll	s1,s0,s1
    534c:	00000913          	li	s2,0
    5350:	fddff06f          	j	532c <__muldf3+0x128>
    5354:	00a4e933          	or	s2,s1,a0
    5358:	02090263          	beqz	s2,537c <__muldf3+0x178>
    535c:	00050913          	mv	s2,a0
    5360:	7ff00993          	li	s3,2047
    5364:	00300b13          	li	s6,3
    5368:	f11ff06f          	j	5278 <__muldf3+0x74>
    536c:	00000493          	li	s1,0
    5370:	00000993          	li	s3,0
    5374:	00100b13          	li	s6,1
    5378:	f01ff06f          	j	5278 <__muldf3+0x74>
    537c:	00000493          	li	s1,0
    5380:	7ff00993          	li	s3,2047
    5384:	00200b13          	li	s6,2
    5388:	ef1ff06f          	j	5278 <__muldf3+0x74>
    538c:	017467b3          	or	a5,s0,s7
    5390:	06078e63          	beqz	a5,540c <__muldf3+0x208>
    5394:	04040063          	beqz	s0,53d4 <__muldf3+0x1d0>
    5398:	00040513          	mv	a0,s0
    539c:	641000ef          	jal	ra,61dc <__clzsi2>
    53a0:	ff550693          	addi	a3,a0,-11
    53a4:	01c00793          	li	a5,28
    53a8:	02d7ce63          	blt	a5,a3,53e4 <__muldf3+0x1e0>
    53ac:	01d00713          	li	a4,29
    53b0:	ff850793          	addi	a5,a0,-8
    53b4:	40d70733          	sub	a4,a4,a3
    53b8:	00f41433          	sll	s0,s0,a5
    53bc:	00ebd733          	srl	a4,s7,a4
    53c0:	00876433          	or	s0,a4,s0
    53c4:	00fb97b3          	sll	a5,s7,a5
    53c8:	c0d00713          	li	a4,-1011
    53cc:	40a70533          	sub	a0,a4,a0
    53d0:	ee5ff06f          	j	52b4 <__muldf3+0xb0>
    53d4:	000b8513          	mv	a0,s7
    53d8:	605000ef          	jal	ra,61dc <__clzsi2>
    53dc:	02050513          	addi	a0,a0,32
    53e0:	fc1ff06f          	j	53a0 <__muldf3+0x19c>
    53e4:	fd850413          	addi	s0,a0,-40
    53e8:	008b9433          	sll	s0,s7,s0
    53ec:	00000793          	li	a5,0
    53f0:	fd9ff06f          	j	53c8 <__muldf3+0x1c4>
    53f4:	017467b3          	or	a5,s0,s7
    53f8:	02078263          	beqz	a5,541c <__muldf3+0x218>
    53fc:	000b8793          	mv	a5,s7
    5400:	7ff00513          	li	a0,2047
    5404:	00300713          	li	a4,3
    5408:	eb1ff06f          	j	52b8 <__muldf3+0xb4>
    540c:	00000413          	li	s0,0
    5410:	00000513          	li	a0,0
    5414:	00100713          	li	a4,1
    5418:	ea1ff06f          	j	52b8 <__muldf3+0xb4>
    541c:	00000413          	li	s0,0
    5420:	7ff00513          	li	a0,2047
    5424:	00200713          	li	a4,2
    5428:	e91ff06f          	j	52b8 <__muldf3+0xb4>
    542c:	00010f37          	lui	t5,0x10
    5430:	ffff0e93          	addi	t4,t5,-1 # ffff <__heap_start+0x367f>
    5434:	01095713          	srli	a4,s2,0x10
    5438:	0107d893          	srli	a7,a5,0x10
    543c:	01d97933          	and	s2,s2,t4
    5440:	01d7f7b3          	and	a5,a5,t4
    5444:	03288833          	mul	a6,a7,s2
    5448:	02f906b3          	mul	a3,s2,a5
    544c:	02f70fb3          	mul	t6,a4,a5
    5450:	01f80333          	add	t1,a6,t6
    5454:	0106d813          	srli	a6,a3,0x10
    5458:	00680833          	add	a6,a6,t1
    545c:	03170e33          	mul	t3,a4,a7
    5460:	01f87463          	bgeu	a6,t6,5468 <__muldf3+0x264>
    5464:	01ee0e33          	add	t3,t3,t5
    5468:	01085393          	srli	t2,a6,0x10
    546c:	01d87833          	and	a6,a6,t4
    5470:	01d6f6b3          	and	a3,a3,t4
    5474:	01045f13          	srli	t5,s0,0x10
    5478:	01d472b3          	and	t0,s0,t4
    547c:	01081813          	slli	a6,a6,0x10
    5480:	00d80833          	add	a6,a6,a3
    5484:	02570eb3          	mul	t4,a4,t0
    5488:	025906b3          	mul	a3,s2,t0
    548c:	032f0933          	mul	s2,t5,s2
    5490:	01d90333          	add	t1,s2,t4
    5494:	0106d913          	srli	s2,a3,0x10
    5498:	00690933          	add	s2,s2,t1
    549c:	03e70733          	mul	a4,a4,t5
    54a0:	01d97663          	bgeu	s2,t4,54ac <__muldf3+0x2a8>
    54a4:	00010337          	lui	t1,0x10
    54a8:	00670733          	add	a4,a4,t1
    54ac:	01095e93          	srli	t4,s2,0x10
    54b0:	000109b7          	lui	s3,0x10
    54b4:	00ee8eb3          	add	t4,t4,a4
    54b8:	fff98713          	addi	a4,s3,-1 # ffff <__heap_start+0x367f>
    54bc:	00e97933          	and	s2,s2,a4
    54c0:	00e6f6b3          	and	a3,a3,a4
    54c4:	0104d413          	srli	s0,s1,0x10
    54c8:	01091913          	slli	s2,s2,0x10
    54cc:	00e4f4b3          	and	s1,s1,a4
    54d0:	02978733          	mul	a4,a5,s1
    54d4:	00d90933          	add	s2,s2,a3
    54d8:	012383b3          	add	t2,t2,s2
    54dc:	02f40333          	mul	t1,s0,a5
    54e0:	029886b3          	mul	a3,a7,s1
    54e4:	028887b3          	mul	a5,a7,s0
    54e8:	006688b3          	add	a7,a3,t1
    54ec:	01075693          	srli	a3,a4,0x10
    54f0:	011686b3          	add	a3,a3,a7
    54f4:	0066f463          	bgeu	a3,t1,54fc <__muldf3+0x2f8>
    54f8:	013787b3          	add	a5,a5,s3
    54fc:	0106d893          	srli	a7,a3,0x10
    5500:	000109b7          	lui	s3,0x10
    5504:	00f88fb3          	add	t6,a7,a5
    5508:	fff98793          	addi	a5,s3,-1 # ffff <__heap_start+0x367f>
    550c:	029288b3          	mul	a7,t0,s1
    5510:	00f6f6b3          	and	a3,a3,a5
    5514:	00f77733          	and	a4,a4,a5
    5518:	01069693          	slli	a3,a3,0x10
    551c:	00e686b3          	add	a3,a3,a4
    5520:	025407b3          	mul	a5,s0,t0
    5524:	029f04b3          	mul	s1,t5,s1
    5528:	028f0333          	mul	t1,t5,s0
    552c:	00f484b3          	add	s1,s1,a5
    5530:	0108d413          	srli	s0,a7,0x10
    5534:	009404b3          	add	s1,s0,s1
    5538:	00f4f463          	bgeu	s1,a5,5540 <__muldf3+0x33c>
    553c:	01330333          	add	t1,t1,s3
    5540:	000107b7          	lui	a5,0x10
    5544:	fff78793          	addi	a5,a5,-1 # ffff <__heap_start+0x367f>
    5548:	00f4f733          	and	a4,s1,a5
    554c:	00f8f8b3          	and	a7,a7,a5
    5550:	01071713          	slli	a4,a4,0x10
    5554:	007e0e33          	add	t3,t3,t2
    5558:	01170733          	add	a4,a4,a7
    555c:	012e3933          	sltu	s2,t3,s2
    5560:	01d70733          	add	a4,a4,t4
    5564:	01270433          	add	s0,a4,s2
    5568:	00de0e33          	add	t3,t3,a3
    556c:	00de36b3          	sltu	a3,t3,a3
    5570:	01f408b3          	add	a7,s0,t6
    5574:	00d88f33          	add	t5,a7,a3
    5578:	01d73733          	sltu	a4,a4,t4
    557c:	01243433          	sltu	s0,s0,s2
    5580:	00876433          	or	s0,a4,s0
    5584:	0104d493          	srli	s1,s1,0x10
    5588:	01f8b8b3          	sltu	a7,a7,t6
    558c:	00df36b3          	sltu	a3,t5,a3
    5590:	00940433          	add	s0,s0,s1
    5594:	00d8e6b3          	or	a3,a7,a3
    5598:	00d40433          	add	s0,s0,a3
    559c:	00640433          	add	s0,s0,t1
    55a0:	017f5793          	srli	a5,t5,0x17
    55a4:	00941413          	slli	s0,s0,0x9
    55a8:	00f46433          	or	s0,s0,a5
    55ac:	009e1793          	slli	a5,t3,0x9
    55b0:	0107e7b3          	or	a5,a5,a6
    55b4:	00f037b3          	snez	a5,a5
    55b8:	017e5e13          	srli	t3,t3,0x17
    55bc:	009f1713          	slli	a4,t5,0x9
    55c0:	01c7e7b3          	or	a5,a5,t3
    55c4:	00e7e7b3          	or	a5,a5,a4
    55c8:	01000737          	lui	a4,0x1000
    55cc:	00e47733          	and	a4,s0,a4
    55d0:	10070663          	beqz	a4,56dc <__muldf3+0x4d8>
    55d4:	0017d713          	srli	a4,a5,0x1
    55d8:	0017f793          	andi	a5,a5,1
    55dc:	00f767b3          	or	a5,a4,a5
    55e0:	01f41713          	slli	a4,s0,0x1f
    55e4:	00e7e7b3          	or	a5,a5,a4
    55e8:	00145413          	srli	s0,s0,0x1
    55ec:	3ff58693          	addi	a3,a1,1023
    55f0:	0ed05a63          	blez	a3,56e4 <__muldf3+0x4e0>
    55f4:	0077f713          	andi	a4,a5,7
    55f8:	02070063          	beqz	a4,5618 <__muldf3+0x414>
    55fc:	00f7f713          	andi	a4,a5,15
    5600:	00400513          	li	a0,4
    5604:	00a70a63          	beq	a4,a0,5618 <__muldf3+0x414>
    5608:	00478713          	addi	a4,a5,4
    560c:	00f737b3          	sltu	a5,a4,a5
    5610:	00f40433          	add	s0,s0,a5
    5614:	00070793          	mv	a5,a4
    5618:	01000737          	lui	a4,0x1000
    561c:	00e47733          	and	a4,s0,a4
    5620:	00070a63          	beqz	a4,5634 <__muldf3+0x430>
    5624:	ff000737          	lui	a4,0xff000
    5628:	fff70713          	addi	a4,a4,-1 # feffffff <__heap_start+0xfeff367f>
    562c:	00e47433          	and	s0,s0,a4
    5630:	40058693          	addi	a3,a1,1024
    5634:	7fe00713          	li	a4,2046
    5638:	16d74a63          	blt	a4,a3,57ac <__muldf3+0x5a8>
    563c:	0037d713          	srli	a4,a5,0x3
    5640:	01d41793          	slli	a5,s0,0x1d
    5644:	00e7e7b3          	or	a5,a5,a4
    5648:	00345413          	srli	s0,s0,0x3
    564c:	01469713          	slli	a4,a3,0x14
    5650:	00c41413          	slli	s0,s0,0xc
    5654:	7ff006b7          	lui	a3,0x7ff00
    5658:	00d77733          	and	a4,a4,a3
    565c:	00c45413          	srli	s0,s0,0xc
    5660:	00876433          	or	s0,a4,s0
    5664:	01f61613          	slli	a2,a2,0x1f
    5668:	02c12083          	lw	ra,44(sp)
    566c:	00c46733          	or	a4,s0,a2
    5670:	02812403          	lw	s0,40(sp)
    5674:	02412483          	lw	s1,36(sp)
    5678:	02012903          	lw	s2,32(sp)
    567c:	01c12983          	lw	s3,28(sp)
    5680:	01812a03          	lw	s4,24(sp)
    5684:	01412a83          	lw	s5,20(sp)
    5688:	01012b03          	lw	s6,16(sp)
    568c:	00c12b83          	lw	s7,12(sp)
    5690:	00078513          	mv	a0,a5
    5694:	00070593          	mv	a1,a4
    5698:	03010113          	addi	sp,sp,48
    569c:	00008067          	ret
    56a0:	000a0613          	mv	a2,s4
    56a4:	00048413          	mv	s0,s1
    56a8:	00090793          	mv	a5,s2
    56ac:	000b0713          	mv	a4,s6
    56b0:	00200693          	li	a3,2
    56b4:	0ed70c63          	beq	a4,a3,57ac <__muldf3+0x5a8>
    56b8:	00300693          	li	a3,3
    56bc:	0cd70e63          	beq	a4,a3,5798 <__muldf3+0x594>
    56c0:	00100693          	li	a3,1
    56c4:	f2d714e3          	bne	a4,a3,55ec <__muldf3+0x3e8>
    56c8:	00000413          	li	s0,0
    56cc:	00000793          	li	a5,0
    56d0:	08c0006f          	j	575c <__muldf3+0x558>
    56d4:	000a8613          	mv	a2,s5
    56d8:	fd9ff06f          	j	56b0 <__muldf3+0x4ac>
    56dc:	00050593          	mv	a1,a0
    56e0:	f0dff06f          	j	55ec <__muldf3+0x3e8>
    56e4:	00100513          	li	a0,1
    56e8:	40d50533          	sub	a0,a0,a3
    56ec:	03800713          	li	a4,56
    56f0:	fca74ce3          	blt	a4,a0,56c8 <__muldf3+0x4c4>
    56f4:	01f00713          	li	a4,31
    56f8:	06a74663          	blt	a4,a0,5764 <__muldf3+0x560>
    56fc:	41e58593          	addi	a1,a1,1054
    5700:	00b41733          	sll	a4,s0,a1
    5704:	00a7d6b3          	srl	a3,a5,a0
    5708:	00b797b3          	sll	a5,a5,a1
    570c:	00d76733          	or	a4,a4,a3
    5710:	00f037b3          	snez	a5,a5
    5714:	00f767b3          	or	a5,a4,a5
    5718:	00a45433          	srl	s0,s0,a0
    571c:	0077f713          	andi	a4,a5,7
    5720:	02070063          	beqz	a4,5740 <__muldf3+0x53c>
    5724:	00f7f713          	andi	a4,a5,15
    5728:	00400693          	li	a3,4
    572c:	00d70a63          	beq	a4,a3,5740 <__muldf3+0x53c>
    5730:	00478713          	addi	a4,a5,4
    5734:	00f737b3          	sltu	a5,a4,a5
    5738:	00f40433          	add	s0,s0,a5
    573c:	00070793          	mv	a5,a4
    5740:	00800737          	lui	a4,0x800
    5744:	00e47733          	and	a4,s0,a4
    5748:	06071a63          	bnez	a4,57bc <__muldf3+0x5b8>
    574c:	01d41713          	slli	a4,s0,0x1d
    5750:	0037d793          	srli	a5,a5,0x3
    5754:	00f767b3          	or	a5,a4,a5
    5758:	00345413          	srli	s0,s0,0x3
    575c:	00000693          	li	a3,0
    5760:	eedff06f          	j	564c <__muldf3+0x448>
    5764:	fe100713          	li	a4,-31
    5768:	40d70733          	sub	a4,a4,a3
    576c:	02000813          	li	a6,32
    5770:	00e45733          	srl	a4,s0,a4
    5774:	00000693          	li	a3,0
    5778:	01050663          	beq	a0,a6,5784 <__muldf3+0x580>
    577c:	43e58593          	addi	a1,a1,1086
    5780:	00b416b3          	sll	a3,s0,a1
    5784:	00f6e7b3          	or	a5,a3,a5
    5788:	00f037b3          	snez	a5,a5
    578c:	00f767b3          	or	a5,a4,a5
    5790:	00000413          	li	s0,0
    5794:	f89ff06f          	j	571c <__muldf3+0x518>
    5798:	00080437          	lui	s0,0x80
    579c:	00000793          	li	a5,0
    57a0:	7ff00693          	li	a3,2047
    57a4:	00000613          	li	a2,0
    57a8:	ea5ff06f          	j	564c <__muldf3+0x448>
    57ac:	00000413          	li	s0,0
    57b0:	00000793          	li	a5,0
    57b4:	7ff00693          	li	a3,2047
    57b8:	e95ff06f          	j	564c <__muldf3+0x448>
    57bc:	00000413          	li	s0,0
    57c0:	00000793          	li	a5,0
    57c4:	00100693          	li	a3,1
    57c8:	e85ff06f          	j	564c <__muldf3+0x448>

000057cc <__subdf3>:
    57cc:	00100837          	lui	a6,0x100
    57d0:	fff80813          	addi	a6,a6,-1 # fffff <__heap_start+0xf367f>
    57d4:	fe010113          	addi	sp,sp,-32
    57d8:	00b877b3          	and	a5,a6,a1
    57dc:	0145d713          	srli	a4,a1,0x14
    57e0:	00d87833          	and	a6,a6,a3
    57e4:	0146d313          	srli	t1,a3,0x14
    57e8:	00812c23          	sw	s0,24(sp)
    57ec:	00379793          	slli	a5,a5,0x3
    57f0:	7ff77413          	andi	s0,a4,2047
    57f4:	01d55713          	srli	a4,a0,0x1d
    57f8:	00912a23          	sw	s1,20(sp)
    57fc:	00f767b3          	or	a5,a4,a5
    5800:	01f5d493          	srli	s1,a1,0x1f
    5804:	01d65713          	srli	a4,a2,0x1d
    5808:	00351593          	slli	a1,a0,0x3
    580c:	00381813          	slli	a6,a6,0x3
    5810:	00112e23          	sw	ra,28(sp)
    5814:	01212823          	sw	s2,16(sp)
    5818:	01312623          	sw	s3,12(sp)
    581c:	7ff37313          	andi	t1,t1,2047
    5820:	7ff00513          	li	a0,2047
    5824:	01f6d693          	srli	a3,a3,0x1f
    5828:	01076733          	or	a4,a4,a6
    582c:	00361613          	slli	a2,a2,0x3
    5830:	00a31663          	bne	t1,a0,583c <__subdf3+0x70>
    5834:	00c76533          	or	a0,a4,a2
    5838:	00051463          	bnez	a0,5840 <__subdf3+0x74>
    583c:	0016c693          	xori	a3,a3,1
    5840:	40640833          	sub	a6,s0,t1
    5844:	2c969863          	bne	a3,s1,5b14 <__subdf3+0x348>
    5848:	13005063          	blez	a6,5968 <__subdf3+0x19c>
    584c:	04031063          	bnez	t1,588c <__subdf3+0xc0>
    5850:	00c766b3          	or	a3,a4,a2
    5854:	70068c63          	beqz	a3,5f6c <__subdf3+0x7a0>
    5858:	fff80513          	addi	a0,a6,-1
    585c:	02051063          	bnez	a0,587c <__subdf3+0xb0>
    5860:	00c58633          	add	a2,a1,a2
    5864:	00b63533          	sltu	a0,a2,a1
    5868:	00e787b3          	add	a5,a5,a4
    586c:	00a787b3          	add	a5,a5,a0
    5870:	00060593          	mv	a1,a2
    5874:	00100413          	li	s0,1
    5878:	0700006f          	j	58e8 <__subdf3+0x11c>
    587c:	7ff00693          	li	a3,2047
    5880:	02d81063          	bne	a6,a3,58a0 <__subdf3+0xd4>
    5884:	7ff00413          	li	s0,2047
    5888:	2140006f          	j	5a9c <__subdf3+0x2d0>
    588c:	7ff00693          	li	a3,2047
    5890:	20d40663          	beq	s0,a3,5a9c <__subdf3+0x2d0>
    5894:	008006b7          	lui	a3,0x800
    5898:	00d76733          	or	a4,a4,a3
    589c:	00080513          	mv	a0,a6
    58a0:	03800693          	li	a3,56
    58a4:	0aa6cc63          	blt	a3,a0,595c <__subdf3+0x190>
    58a8:	01f00693          	li	a3,31
    58ac:	06a6ce63          	blt	a3,a0,5928 <__subdf3+0x15c>
    58b0:	02000813          	li	a6,32
    58b4:	40a80833          	sub	a6,a6,a0
    58b8:	010716b3          	sll	a3,a4,a6
    58bc:	00a658b3          	srl	a7,a2,a0
    58c0:	01061633          	sll	a2,a2,a6
    58c4:	0116e6b3          	or	a3,a3,a7
    58c8:	00c03633          	snez	a2,a2
    58cc:	00c6e633          	or	a2,a3,a2
    58d0:	00a75733          	srl	a4,a4,a0
    58d4:	00b60633          	add	a2,a2,a1
    58d8:	00b63533          	sltu	a0,a2,a1
    58dc:	00f70733          	add	a4,a4,a5
    58e0:	00a707b3          	add	a5,a4,a0
    58e4:	00060593          	mv	a1,a2
    58e8:	00800737          	lui	a4,0x800
    58ec:	00e7f733          	and	a4,a5,a4
    58f0:	1a070663          	beqz	a4,5a9c <__subdf3+0x2d0>
    58f4:	00140413          	addi	s0,s0,1 # 80001 <__heap_start+0x73681>
    58f8:	7ff00713          	li	a4,2047
    58fc:	5ce40a63          	beq	s0,a4,5ed0 <__subdf3+0x704>
    5900:	ff800737          	lui	a4,0xff800
    5904:	fff70713          	addi	a4,a4,-1 # ff7fffff <__heap_start+0xff7f367f>
    5908:	00e7f7b3          	and	a5,a5,a4
    590c:	0015f513          	andi	a0,a1,1
    5910:	0015d713          	srli	a4,a1,0x1
    5914:	00a76533          	or	a0,a4,a0
    5918:	01f79593          	slli	a1,a5,0x1f
    591c:	00a5e5b3          	or	a1,a1,a0
    5920:	0017d793          	srli	a5,a5,0x1
    5924:	1780006f          	j	5a9c <__subdf3+0x2d0>
    5928:	fe050693          	addi	a3,a0,-32
    592c:	02000893          	li	a7,32
    5930:	00d756b3          	srl	a3,a4,a3
    5934:	00000813          	li	a6,0
    5938:	01150863          	beq	a0,a7,5948 <__subdf3+0x17c>
    593c:	04000813          	li	a6,64
    5940:	40a80533          	sub	a0,a6,a0
    5944:	00a71833          	sll	a6,a4,a0
    5948:	00c86633          	or	a2,a6,a2
    594c:	00c03633          	snez	a2,a2
    5950:	00c6e633          	or	a2,a3,a2
    5954:	00000713          	li	a4,0
    5958:	f7dff06f          	j	58d4 <__subdf3+0x108>
    595c:	00c76633          	or	a2,a4,a2
    5960:	00c03633          	snez	a2,a2
    5964:	ff1ff06f          	j	5954 <__subdf3+0x188>
    5968:	0e080263          	beqz	a6,5a4c <__subdf3+0x280>
    596c:	40830533          	sub	a0,t1,s0
    5970:	02041e63          	bnez	s0,59ac <__subdf3+0x1e0>
    5974:	00b7e6b3          	or	a3,a5,a1
    5978:	52068c63          	beqz	a3,5eb0 <__subdf3+0x6e4>
    597c:	fff50693          	addi	a3,a0,-1
    5980:	00069c63          	bnez	a3,5998 <__subdf3+0x1cc>
    5984:	00c585b3          	add	a1,a1,a2
    5988:	00e787b3          	add	a5,a5,a4
    598c:	00c5b633          	sltu	a2,a1,a2
    5990:	00c787b3          	add	a5,a5,a2
    5994:	ee1ff06f          	j	5874 <__subdf3+0xa8>
    5998:	7ff00813          	li	a6,2047
    599c:	03051263          	bne	a0,a6,59c0 <__subdf3+0x1f4>
    59a0:	00070793          	mv	a5,a4
    59a4:	00060593          	mv	a1,a2
    59a8:	eddff06f          	j	5884 <__subdf3+0xb8>
    59ac:	7ff00693          	li	a3,2047
    59b0:	fed308e3          	beq	t1,a3,59a0 <__subdf3+0x1d4>
    59b4:	008006b7          	lui	a3,0x800
    59b8:	00d7e7b3          	or	a5,a5,a3
    59bc:	00050693          	mv	a3,a0
    59c0:	03800513          	li	a0,56
    59c4:	06d54e63          	blt	a0,a3,5a40 <__subdf3+0x274>
    59c8:	01f00513          	li	a0,31
    59cc:	04d54063          	blt	a0,a3,5a0c <__subdf3+0x240>
    59d0:	02000813          	li	a6,32
    59d4:	40d80833          	sub	a6,a6,a3
    59d8:	01079533          	sll	a0,a5,a6
    59dc:	00d5d8b3          	srl	a7,a1,a3
    59e0:	010595b3          	sll	a1,a1,a6
    59e4:	01156533          	or	a0,a0,a7
    59e8:	00b035b3          	snez	a1,a1
    59ec:	00b56533          	or	a0,a0,a1
    59f0:	00d7d7b3          	srl	a5,a5,a3
    59f4:	00c505b3          	add	a1,a0,a2
    59f8:	00e787b3          	add	a5,a5,a4
    59fc:	00c5b633          	sltu	a2,a1,a2
    5a00:	00c787b3          	add	a5,a5,a2
    5a04:	00030413          	mv	s0,t1
    5a08:	ee1ff06f          	j	58e8 <__subdf3+0x11c>
    5a0c:	fe068513          	addi	a0,a3,-32 # 7fffe0 <__heap_start+0x7f3660>
    5a10:	02000893          	li	a7,32
    5a14:	00a7d833          	srl	a6,a5,a0
    5a18:	00000513          	li	a0,0
    5a1c:	01168863          	beq	a3,a7,5a2c <__subdf3+0x260>
    5a20:	04000513          	li	a0,64
    5a24:	40d50533          	sub	a0,a0,a3
    5a28:	00a79533          	sll	a0,a5,a0
    5a2c:	00b56533          	or	a0,a0,a1
    5a30:	00a03533          	snez	a0,a0
    5a34:	00a86533          	or	a0,a6,a0
    5a38:	00000793          	li	a5,0
    5a3c:	fb9ff06f          	j	59f4 <__subdf3+0x228>
    5a40:	00b7e533          	or	a0,a5,a1
    5a44:	00a03533          	snez	a0,a0
    5a48:	ff1ff06f          	j	5a38 <__subdf3+0x26c>
    5a4c:	00140693          	addi	a3,s0,1
    5a50:	7fe6f513          	andi	a0,a3,2046
    5a54:	08051863          	bnez	a0,5ae4 <__subdf3+0x318>
    5a58:	00b7e6b3          	or	a3,a5,a1
    5a5c:	06041463          	bnez	s0,5ac4 <__subdf3+0x2f8>
    5a60:	46068063          	beqz	a3,5ec0 <__subdf3+0x6f4>
    5a64:	00c766b3          	or	a3,a4,a2
    5a68:	02068a63          	beqz	a3,5a9c <__subdf3+0x2d0>
    5a6c:	00c58633          	add	a2,a1,a2
    5a70:	00e787b3          	add	a5,a5,a4
    5a74:	00b63533          	sltu	a0,a2,a1
    5a78:	00a787b3          	add	a5,a5,a0
    5a7c:	00800737          	lui	a4,0x800
    5a80:	00e7f733          	and	a4,a5,a4
    5a84:	00060593          	mv	a1,a2
    5a88:	00070a63          	beqz	a4,5a9c <__subdf3+0x2d0>
    5a8c:	ff800737          	lui	a4,0xff800
    5a90:	fff70713          	addi	a4,a4,-1 # ff7fffff <__heap_start+0xff7f367f>
    5a94:	00e7f7b3          	and	a5,a5,a4
    5a98:	00100413          	li	s0,1
    5a9c:	0075f713          	andi	a4,a1,7
    5aa0:	42070c63          	beqz	a4,5ed8 <__subdf3+0x70c>
    5aa4:	00f5f713          	andi	a4,a1,15
    5aa8:	00400693          	li	a3,4
    5aac:	42d70663          	beq	a4,a3,5ed8 <__subdf3+0x70c>
    5ab0:	00458713          	addi	a4,a1,4
    5ab4:	00b73533          	sltu	a0,a4,a1
    5ab8:	00a787b3          	add	a5,a5,a0
    5abc:	00070593          	mv	a1,a4
    5ac0:	4180006f          	j	5ed8 <__subdf3+0x70c>
    5ac4:	ec068ee3          	beqz	a3,59a0 <__subdf3+0x1d4>
    5ac8:	00c76633          	or	a2,a4,a2
    5acc:	da060ce3          	beqz	a2,5884 <__subdf3+0xb8>
    5ad0:	00000493          	li	s1,0
    5ad4:	004007b7          	lui	a5,0x400
    5ad8:	00000593          	li	a1,0
    5adc:	7ff00413          	li	s0,2047
    5ae0:	3f80006f          	j	5ed8 <__subdf3+0x70c>
    5ae4:	7ff00513          	li	a0,2047
    5ae8:	3ea68263          	beq	a3,a0,5ecc <__subdf3+0x700>
    5aec:	00c58633          	add	a2,a1,a2
    5af0:	00b63533          	sltu	a0,a2,a1
    5af4:	00e787b3          	add	a5,a5,a4
    5af8:	00a787b3          	add	a5,a5,a0
    5afc:	01f79513          	slli	a0,a5,0x1f
    5b00:	00165613          	srli	a2,a2,0x1
    5b04:	00c565b3          	or	a1,a0,a2
    5b08:	0017d793          	srli	a5,a5,0x1
    5b0c:	00068413          	mv	s0,a3
    5b10:	f8dff06f          	j	5a9c <__subdf3+0x2d0>
    5b14:	0f005c63          	blez	a6,5c0c <__subdf3+0x440>
    5b18:	08031e63          	bnez	t1,5bb4 <__subdf3+0x3e8>
    5b1c:	00c766b3          	or	a3,a4,a2
    5b20:	44068663          	beqz	a3,5f6c <__subdf3+0x7a0>
    5b24:	fff80513          	addi	a0,a6,-1
    5b28:	02051063          	bnez	a0,5b48 <__subdf3+0x37c>
    5b2c:	40c58633          	sub	a2,a1,a2
    5b30:	00c5b533          	sltu	a0,a1,a2
    5b34:	40e787b3          	sub	a5,a5,a4
    5b38:	40a787b3          	sub	a5,a5,a0
    5b3c:	00060593          	mv	a1,a2
    5b40:	00100413          	li	s0,1
    5b44:	0540006f          	j	5b98 <__subdf3+0x3cc>
    5b48:	7ff00693          	li	a3,2047
    5b4c:	d2d80ce3          	beq	a6,a3,5884 <__subdf3+0xb8>
    5b50:	03800693          	li	a3,56
    5b54:	0aa6c663          	blt	a3,a0,5c00 <__subdf3+0x434>
    5b58:	01f00693          	li	a3,31
    5b5c:	06a6c863          	blt	a3,a0,5bcc <__subdf3+0x400>
    5b60:	02000813          	li	a6,32
    5b64:	40a80833          	sub	a6,a6,a0
    5b68:	010716b3          	sll	a3,a4,a6
    5b6c:	00a658b3          	srl	a7,a2,a0
    5b70:	01061633          	sll	a2,a2,a6
    5b74:	0116e6b3          	or	a3,a3,a7
    5b78:	00c03633          	snez	a2,a2
    5b7c:	00c6e633          	or	a2,a3,a2
    5b80:	00a75733          	srl	a4,a4,a0
    5b84:	40c58633          	sub	a2,a1,a2
    5b88:	00c5b533          	sltu	a0,a1,a2
    5b8c:	40e78733          	sub	a4,a5,a4
    5b90:	40a707b3          	sub	a5,a4,a0
    5b94:	00060593          	mv	a1,a2
    5b98:	00800937          	lui	s2,0x800
    5b9c:	0127f733          	and	a4,a5,s2
    5ba0:	ee070ee3          	beqz	a4,5a9c <__subdf3+0x2d0>
    5ba4:	fff90913          	addi	s2,s2,-1 # 7fffff <__heap_start+0x7f367f>
    5ba8:	0127f933          	and	s2,a5,s2
    5bac:	00058993          	mv	s3,a1
    5bb0:	2140006f          	j	5dc4 <__subdf3+0x5f8>
    5bb4:	7ff00693          	li	a3,2047
    5bb8:	eed402e3          	beq	s0,a3,5a9c <__subdf3+0x2d0>
    5bbc:	008006b7          	lui	a3,0x800
    5bc0:	00d76733          	or	a4,a4,a3
    5bc4:	00080513          	mv	a0,a6
    5bc8:	f89ff06f          	j	5b50 <__subdf3+0x384>
    5bcc:	fe050693          	addi	a3,a0,-32
    5bd0:	02000893          	li	a7,32
    5bd4:	00d756b3          	srl	a3,a4,a3
    5bd8:	00000813          	li	a6,0
    5bdc:	01150863          	beq	a0,a7,5bec <__subdf3+0x420>
    5be0:	04000813          	li	a6,64
    5be4:	40a80533          	sub	a0,a6,a0
    5be8:	00a71833          	sll	a6,a4,a0
    5bec:	00c86633          	or	a2,a6,a2
    5bf0:	00c03633          	snez	a2,a2
    5bf4:	00c6e633          	or	a2,a3,a2
    5bf8:	00000713          	li	a4,0
    5bfc:	f89ff06f          	j	5b84 <__subdf3+0x3b8>
    5c00:	00c76633          	or	a2,a4,a2
    5c04:	00c03633          	snez	a2,a2
    5c08:	ff1ff06f          	j	5bf8 <__subdf3+0x42c>
    5c0c:	0e080863          	beqz	a6,5cfc <__subdf3+0x530>
    5c10:	40830533          	sub	a0,t1,s0
    5c14:	04041263          	bnez	s0,5c58 <__subdf3+0x48c>
    5c18:	00b7e833          	or	a6,a5,a1
    5c1c:	34080c63          	beqz	a6,5f74 <__subdf3+0x7a8>
    5c20:	fff50813          	addi	a6,a0,-1
    5c24:	00081e63          	bnez	a6,5c40 <__subdf3+0x474>
    5c28:	40b605b3          	sub	a1,a2,a1
    5c2c:	40f707b3          	sub	a5,a4,a5
    5c30:	00b63633          	sltu	a2,a2,a1
    5c34:	40c787b3          	sub	a5,a5,a2
    5c38:	00068493          	mv	s1,a3
    5c3c:	f05ff06f          	j	5b40 <__subdf3+0x374>
    5c40:	7ff00893          	li	a7,2047
    5c44:	03151463          	bne	a0,a7,5c6c <__subdf3+0x4a0>
    5c48:	00070793          	mv	a5,a4
    5c4c:	00060593          	mv	a1,a2
    5c50:	7ff00413          	li	s0,2047
    5c54:	0d00006f          	j	5d24 <__subdf3+0x558>
    5c58:	7ff00813          	li	a6,2047
    5c5c:	ff0306e3          	beq	t1,a6,5c48 <__subdf3+0x47c>
    5c60:	00800837          	lui	a6,0x800
    5c64:	0107e7b3          	or	a5,a5,a6
    5c68:	00050813          	mv	a6,a0
    5c6c:	03800513          	li	a0,56
    5c70:	09054063          	blt	a0,a6,5cf0 <__subdf3+0x524>
    5c74:	01f00513          	li	a0,31
    5c78:	05054263          	blt	a0,a6,5cbc <__subdf3+0x4f0>
    5c7c:	02000893          	li	a7,32
    5c80:	410888b3          	sub	a7,a7,a6
    5c84:	01179533          	sll	a0,a5,a7
    5c88:	0105de33          	srl	t3,a1,a6
    5c8c:	011595b3          	sll	a1,a1,a7
    5c90:	01c56533          	or	a0,a0,t3
    5c94:	00b035b3          	snez	a1,a1
    5c98:	00b56533          	or	a0,a0,a1
    5c9c:	0107d7b3          	srl	a5,a5,a6
    5ca0:	40a605b3          	sub	a1,a2,a0
    5ca4:	40f707b3          	sub	a5,a4,a5
    5ca8:	00b63633          	sltu	a2,a2,a1
    5cac:	40c787b3          	sub	a5,a5,a2
    5cb0:	00030413          	mv	s0,t1
    5cb4:	00068493          	mv	s1,a3
    5cb8:	ee1ff06f          	j	5b98 <__subdf3+0x3cc>
    5cbc:	fe080513          	addi	a0,a6,-32 # 7fffe0 <__heap_start+0x7f3660>
    5cc0:	02000e13          	li	t3,32
    5cc4:	00a7d8b3          	srl	a7,a5,a0
    5cc8:	00000513          	li	a0,0
    5ccc:	01c80863          	beq	a6,t3,5cdc <__subdf3+0x510>
    5cd0:	04000513          	li	a0,64
    5cd4:	41050533          	sub	a0,a0,a6
    5cd8:	00a79533          	sll	a0,a5,a0
    5cdc:	00b56533          	or	a0,a0,a1
    5ce0:	00a03533          	snez	a0,a0
    5ce4:	00a8e533          	or	a0,a7,a0
    5ce8:	00000793          	li	a5,0
    5cec:	fb5ff06f          	j	5ca0 <__subdf3+0x4d4>
    5cf0:	00b7e533          	or	a0,a5,a1
    5cf4:	00a03533          	snez	a0,a0
    5cf8:	ff1ff06f          	j	5ce8 <__subdf3+0x51c>
    5cfc:	00140513          	addi	a0,s0,1
    5d00:	7fe57513          	andi	a0,a0,2046
    5d04:	08051863          	bnez	a0,5d94 <__subdf3+0x5c8>
    5d08:	00b7e833          	or	a6,a5,a1
    5d0c:	00c76533          	or	a0,a4,a2
    5d10:	06041263          	bnez	s0,5d74 <__subdf3+0x5a8>
    5d14:	00081c63          	bnez	a6,5d2c <__subdf3+0x560>
    5d18:	26050663          	beqz	a0,5f84 <__subdf3+0x7b8>
    5d1c:	00070793          	mv	a5,a4
    5d20:	00060593          	mv	a1,a2
    5d24:	00068493          	mv	s1,a3
    5d28:	d75ff06f          	j	5a9c <__subdf3+0x2d0>
    5d2c:	d60508e3          	beqz	a0,5a9c <__subdf3+0x2d0>
    5d30:	40c58833          	sub	a6,a1,a2
    5d34:	0105b8b3          	sltu	a7,a1,a6
    5d38:	40e78533          	sub	a0,a5,a4
    5d3c:	41150533          	sub	a0,a0,a7
    5d40:	008008b7          	lui	a7,0x800
    5d44:	011578b3          	and	a7,a0,a7
    5d48:	00088c63          	beqz	a7,5d60 <__subdf3+0x594>
    5d4c:	40b605b3          	sub	a1,a2,a1
    5d50:	40f707b3          	sub	a5,a4,a5
    5d54:	00b63633          	sltu	a2,a2,a1
    5d58:	40c787b3          	sub	a5,a5,a2
    5d5c:	fc9ff06f          	j	5d24 <__subdf3+0x558>
    5d60:	00a865b3          	or	a1,a6,a0
    5d64:	22058863          	beqz	a1,5f94 <__subdf3+0x7c8>
    5d68:	00050793          	mv	a5,a0
    5d6c:	00080593          	mv	a1,a6
    5d70:	d2dff06f          	j	5a9c <__subdf3+0x2d0>
    5d74:	00081c63          	bnez	a6,5d8c <__subdf3+0x5c0>
    5d78:	22050263          	beqz	a0,5f9c <__subdf3+0x7d0>
    5d7c:	00070793          	mv	a5,a4
    5d80:	00060593          	mv	a1,a2
    5d84:	00068493          	mv	s1,a3
    5d88:	afdff06f          	j	5884 <__subdf3+0xb8>
    5d8c:	ae050ce3          	beqz	a0,5884 <__subdf3+0xb8>
    5d90:	d41ff06f          	j	5ad0 <__subdf3+0x304>
    5d94:	40c589b3          	sub	s3,a1,a2
    5d98:	0135b533          	sltu	a0,a1,s3
    5d9c:	40e78933          	sub	s2,a5,a4
    5da0:	40a90933          	sub	s2,s2,a0
    5da4:	00800537          	lui	a0,0x800
    5da8:	00a97533          	and	a0,s2,a0
    5dac:	08050463          	beqz	a0,5e34 <__subdf3+0x668>
    5db0:	40b609b3          	sub	s3,a2,a1
    5db4:	40f707b3          	sub	a5,a4,a5
    5db8:	01363633          	sltu	a2,a2,s3
    5dbc:	40c78933          	sub	s2,a5,a2
    5dc0:	00068493          	mv	s1,a3
    5dc4:	08090263          	beqz	s2,5e48 <__subdf3+0x67c>
    5dc8:	00090513          	mv	a0,s2
    5dcc:	410000ef          	jal	ra,61dc <__clzsi2>
    5dd0:	ff850713          	addi	a4,a0,-8 # 7ffff8 <__heap_start+0x7f3678>
    5dd4:	01f00793          	li	a5,31
    5dd8:	08e7c063          	blt	a5,a4,5e58 <__subdf3+0x68c>
    5ddc:	02000793          	li	a5,32
    5de0:	40e787b3          	sub	a5,a5,a4
    5de4:	00e91933          	sll	s2,s2,a4
    5de8:	00f9d7b3          	srl	a5,s3,a5
    5dec:	0127e7b3          	or	a5,a5,s2
    5df0:	00e995b3          	sll	a1,s3,a4
    5df4:	0a874463          	blt	a4,s0,5e9c <__subdf3+0x6d0>
    5df8:	40870733          	sub	a4,a4,s0
    5dfc:	00170693          	addi	a3,a4,1
    5e00:	01f00613          	li	a2,31
    5e04:	06d64263          	blt	a2,a3,5e68 <__subdf3+0x69c>
    5e08:	02000713          	li	a4,32
    5e0c:	40d70733          	sub	a4,a4,a3
    5e10:	00e79633          	sll	a2,a5,a4
    5e14:	00d5d533          	srl	a0,a1,a3
    5e18:	00e595b3          	sll	a1,a1,a4
    5e1c:	00a66633          	or	a2,a2,a0
    5e20:	00b035b3          	snez	a1,a1
    5e24:	00b665b3          	or	a1,a2,a1
    5e28:	00d7d7b3          	srl	a5,a5,a3
    5e2c:	00000413          	li	s0,0
    5e30:	c6dff06f          	j	5a9c <__subdf3+0x2d0>
    5e34:	0129e5b3          	or	a1,s3,s2
    5e38:	f80596e3          	bnez	a1,5dc4 <__subdf3+0x5f8>
    5e3c:	00000793          	li	a5,0
    5e40:	00000413          	li	s0,0
    5e44:	1480006f          	j	5f8c <__subdf3+0x7c0>
    5e48:	00098513          	mv	a0,s3
    5e4c:	390000ef          	jal	ra,61dc <__clzsi2>
    5e50:	02050513          	addi	a0,a0,32
    5e54:	f7dff06f          	j	5dd0 <__subdf3+0x604>
    5e58:	fd850793          	addi	a5,a0,-40
    5e5c:	00f997b3          	sll	a5,s3,a5
    5e60:	00000593          	li	a1,0
    5e64:	f91ff06f          	j	5df4 <__subdf3+0x628>
    5e68:	fe170713          	addi	a4,a4,-31
    5e6c:	02000613          	li	a2,32
    5e70:	00e7d733          	srl	a4,a5,a4
    5e74:	00000513          	li	a0,0
    5e78:	00c68863          	beq	a3,a2,5e88 <__subdf3+0x6bc>
    5e7c:	04000513          	li	a0,64
    5e80:	40d50533          	sub	a0,a0,a3
    5e84:	00a79533          	sll	a0,a5,a0
    5e88:	00a5e533          	or	a0,a1,a0
    5e8c:	00a03533          	snez	a0,a0
    5e90:	00a765b3          	or	a1,a4,a0
    5e94:	00000793          	li	a5,0
    5e98:	f95ff06f          	j	5e2c <__subdf3+0x660>
    5e9c:	40e40433          	sub	s0,s0,a4
    5ea0:	ff800737          	lui	a4,0xff800
    5ea4:	fff70713          	addi	a4,a4,-1 # ff7fffff <__heap_start+0xff7f367f>
    5ea8:	00e7f7b3          	and	a5,a5,a4
    5eac:	bf1ff06f          	j	5a9c <__subdf3+0x2d0>
    5eb0:	00070793          	mv	a5,a4
    5eb4:	00060593          	mv	a1,a2
    5eb8:	00050413          	mv	s0,a0
    5ebc:	be1ff06f          	j	5a9c <__subdf3+0x2d0>
    5ec0:	00070793          	mv	a5,a4
    5ec4:	00060593          	mv	a1,a2
    5ec8:	bd5ff06f          	j	5a9c <__subdf3+0x2d0>
    5ecc:	7ff00413          	li	s0,2047
    5ed0:	00000793          	li	a5,0
    5ed4:	00000593          	li	a1,0
    5ed8:	00800737          	lui	a4,0x800
    5edc:	00e7f733          	and	a4,a5,a4
    5ee0:	00070e63          	beqz	a4,5efc <__subdf3+0x730>
    5ee4:	00140413          	addi	s0,s0,1
    5ee8:	7ff00713          	li	a4,2047
    5eec:	0ce40063          	beq	s0,a4,5fac <__subdf3+0x7e0>
    5ef0:	ff800737          	lui	a4,0xff800
    5ef4:	fff70713          	addi	a4,a4,-1 # ff7fffff <__heap_start+0xff7f367f>
    5ef8:	00e7f7b3          	and	a5,a5,a4
    5efc:	01d79713          	slli	a4,a5,0x1d
    5f00:	0035d513          	srli	a0,a1,0x3
    5f04:	00a76533          	or	a0,a4,a0
    5f08:	7ff00713          	li	a4,2047
    5f0c:	0037d793          	srli	a5,a5,0x3
    5f10:	00e41e63          	bne	s0,a4,5f2c <__subdf3+0x760>
    5f14:	00f56533          	or	a0,a0,a5
    5f18:	00000793          	li	a5,0
    5f1c:	00050863          	beqz	a0,5f2c <__subdf3+0x760>
    5f20:	000807b7          	lui	a5,0x80
    5f24:	00000513          	li	a0,0
    5f28:	00000493          	li	s1,0
    5f2c:	01441713          	slli	a4,s0,0x14
    5f30:	7ff006b7          	lui	a3,0x7ff00
    5f34:	00c79793          	slli	a5,a5,0xc
    5f38:	01c12083          	lw	ra,28(sp)
    5f3c:	01812403          	lw	s0,24(sp)
    5f40:	00d77733          	and	a4,a4,a3
    5f44:	00c7d793          	srli	a5,a5,0xc
    5f48:	01f49493          	slli	s1,s1,0x1f
    5f4c:	00f767b3          	or	a5,a4,a5
    5f50:	0097e733          	or	a4,a5,s1
    5f54:	01012903          	lw	s2,16(sp)
    5f58:	01412483          	lw	s1,20(sp)
    5f5c:	00c12983          	lw	s3,12(sp)
    5f60:	00070593          	mv	a1,a4
    5f64:	02010113          	addi	sp,sp,32
    5f68:	00008067          	ret
    5f6c:	00080413          	mv	s0,a6
    5f70:	b2dff06f          	j	5a9c <__subdf3+0x2d0>
    5f74:	00070793          	mv	a5,a4
    5f78:	00060593          	mv	a1,a2
    5f7c:	00050413          	mv	s0,a0
    5f80:	da5ff06f          	j	5d24 <__subdf3+0x558>
    5f84:	00000793          	li	a5,0
    5f88:	00000593          	li	a1,0
    5f8c:	00000493          	li	s1,0
    5f90:	f49ff06f          	j	5ed8 <__subdf3+0x70c>
    5f94:	00000793          	li	a5,0
    5f98:	ff5ff06f          	j	5f8c <__subdf3+0x7c0>
    5f9c:	00000593          	li	a1,0
    5fa0:	00000493          	li	s1,0
    5fa4:	004007b7          	lui	a5,0x400
    5fa8:	b35ff06f          	j	5adc <__subdf3+0x310>
    5fac:	00000793          	li	a5,0
    5fb0:	00000593          	li	a1,0
    5fb4:	f49ff06f          	j	5efc <__subdf3+0x730>

00005fb8 <__fixdfsi>:
    5fb8:	0145d713          	srli	a4,a1,0x14
    5fbc:	001006b7          	lui	a3,0x100
    5fc0:	fff68793          	addi	a5,a3,-1 # fffff <__heap_start+0xf367f>
    5fc4:	7ff77713          	andi	a4,a4,2047
    5fc8:	3fe00613          	li	a2,1022
    5fcc:	00b7f7b3          	and	a5,a5,a1
    5fd0:	01f5d593          	srli	a1,a1,0x1f
    5fd4:	04e65e63          	bge	a2,a4,6030 <__fixdfsi+0x78>
    5fd8:	41d00613          	li	a2,1053
    5fdc:	00e65a63          	bge	a2,a4,5ff0 <__fixdfsi+0x38>
    5fe0:	80000537          	lui	a0,0x80000
    5fe4:	fff54513          	not	a0,a0
    5fe8:	00a58533          	add	a0,a1,a0
    5fec:	00008067          	ret
    5ff0:	00d7e7b3          	or	a5,a5,a3
    5ff4:	43300693          	li	a3,1075
    5ff8:	40e686b3          	sub	a3,a3,a4
    5ffc:	01f00613          	li	a2,31
    6000:	02d64063          	blt	a2,a3,6020 <__fixdfsi+0x68>
    6004:	bed70713          	addi	a4,a4,-1043
    6008:	00e797b3          	sll	a5,a5,a4
    600c:	00d55533          	srl	a0,a0,a3
    6010:	00a7e533          	or	a0,a5,a0
    6014:	02058063          	beqz	a1,6034 <__fixdfsi+0x7c>
    6018:	40a00533          	neg	a0,a0
    601c:	00008067          	ret
    6020:	41300513          	li	a0,1043
    6024:	40e50533          	sub	a0,a0,a4
    6028:	00a7d533          	srl	a0,a5,a0
    602c:	fe9ff06f          	j	6014 <__fixdfsi+0x5c>
    6030:	00000513          	li	a0,0
    6034:	00008067          	ret

00006038 <__fixunsdfsi>:
    6038:	0145d713          	srli	a4,a1,0x14
    603c:	00100837          	lui	a6,0x100
    6040:	fff80793          	addi	a5,a6,-1 # fffff <__heap_start+0xf367f>
    6044:	7ff77713          	andi	a4,a4,2047
    6048:	3fe00613          	li	a2,1022
    604c:	00b7f7b3          	and	a5,a5,a1
    6050:	00050693          	mv	a3,a0
    6054:	01f5d593          	srli	a1,a1,0x1f
    6058:	04e65a63          	bge	a2,a4,60ac <__fixunsdfsi+0x74>
    605c:	41f00613          	li	a2,1055
    6060:	40b60633          	sub	a2,a2,a1
    6064:	fff58513          	addi	a0,a1,-1
    6068:	04c75463          	bge	a4,a2,60b0 <__fixunsdfsi+0x78>
    606c:	00000513          	li	a0,0
    6070:	04059063          	bnez	a1,60b0 <__fixunsdfsi+0x78>
    6074:	43300513          	li	a0,1075
    6078:	40e50533          	sub	a0,a0,a4
    607c:	01f00613          	li	a2,31
    6080:	0107e7b3          	or	a5,a5,a6
    6084:	00a64c63          	blt	a2,a0,609c <__fixunsdfsi+0x64>
    6088:	bed70713          	addi	a4,a4,-1043
    608c:	00e797b3          	sll	a5,a5,a4
    6090:	00a6d533          	srl	a0,a3,a0
    6094:	00a7e533          	or	a0,a5,a0
    6098:	00008067          	ret
    609c:	41300513          	li	a0,1043
    60a0:	40e50533          	sub	a0,a0,a4
    60a4:	00a7d533          	srl	a0,a5,a0
    60a8:	00008067          	ret
    60ac:	00000513          	li	a0,0
    60b0:	00008067          	ret

000060b4 <__floatsidf>:
    60b4:	ff010113          	addi	sp,sp,-16
    60b8:	00112623          	sw	ra,12(sp)
    60bc:	00812423          	sw	s0,8(sp)
    60c0:	00912223          	sw	s1,4(sp)
    60c4:	08050663          	beqz	a0,6150 <__floatsidf+0x9c>
    60c8:	41f55793          	srai	a5,a0,0x1f
    60cc:	00a7c433          	xor	s0,a5,a0
    60d0:	40f40433          	sub	s0,s0,a5
    60d4:	01f55493          	srli	s1,a0,0x1f
    60d8:	00040513          	mv	a0,s0
    60dc:	100000ef          	jal	ra,61dc <__clzsi2>
    60e0:	41e00713          	li	a4,1054
    60e4:	00a00793          	li	a5,10
    60e8:	40a70733          	sub	a4,a4,a0
    60ec:	04a7c863          	blt	a5,a0,613c <__floatsidf+0x88>
    60f0:	00b00793          	li	a5,11
    60f4:	40a787b3          	sub	a5,a5,a0
    60f8:	01550513          	addi	a0,a0,21 # 80000015 <__heap_start+0x7fff3695>
    60fc:	00f457b3          	srl	a5,s0,a5
    6100:	00a41433          	sll	s0,s0,a0
    6104:	00048513          	mv	a0,s1
    6108:	00c79793          	slli	a5,a5,0xc
    610c:	01471713          	slli	a4,a4,0x14
    6110:	00c7d793          	srli	a5,a5,0xc
    6114:	01f51513          	slli	a0,a0,0x1f
    6118:	00f767b3          	or	a5,a4,a5
    611c:	00c12083          	lw	ra,12(sp)
    6120:	00a7e733          	or	a4,a5,a0
    6124:	00040513          	mv	a0,s0
    6128:	00812403          	lw	s0,8(sp)
    612c:	00412483          	lw	s1,4(sp)
    6130:	00070593          	mv	a1,a4
    6134:	01010113          	addi	sp,sp,16
    6138:	00008067          	ret
    613c:	ff550513          	addi	a0,a0,-11
    6140:	00a417b3          	sll	a5,s0,a0
    6144:	00048513          	mv	a0,s1
    6148:	00000413          	li	s0,0
    614c:	fbdff06f          	j	6108 <__floatsidf+0x54>
    6150:	00000713          	li	a4,0
    6154:	00000793          	li	a5,0
    6158:	ff1ff06f          	j	6148 <__floatsidf+0x94>

0000615c <__floatunsidf>:
    615c:	ff010113          	addi	sp,sp,-16
    6160:	00812423          	sw	s0,8(sp)
    6164:	00112623          	sw	ra,12(sp)
    6168:	00050413          	mv	s0,a0
    616c:	06050263          	beqz	a0,61d0 <__floatunsidf+0x74>
    6170:	06c000ef          	jal	ra,61dc <__clzsi2>
    6174:	41e00713          	li	a4,1054
    6178:	00a00793          	li	a5,10
    617c:	40a70733          	sub	a4,a4,a0
    6180:	04a7c063          	blt	a5,a0,61c0 <__floatunsidf+0x64>
    6184:	00b00793          	li	a5,11
    6188:	40a787b3          	sub	a5,a5,a0
    618c:	01550513          	addi	a0,a0,21
    6190:	00f457b3          	srl	a5,s0,a5
    6194:	00a41433          	sll	s0,s0,a0
    6198:	00c12083          	lw	ra,12(sp)
    619c:	00040513          	mv	a0,s0
    61a0:	00c79793          	slli	a5,a5,0xc
    61a4:	00812403          	lw	s0,8(sp)
    61a8:	01471713          	slli	a4,a4,0x14
    61ac:	00c7d793          	srli	a5,a5,0xc
    61b0:	00f766b3          	or	a3,a4,a5
    61b4:	00068593          	mv	a1,a3
    61b8:	01010113          	addi	sp,sp,16
    61bc:	00008067          	ret
    61c0:	ff550793          	addi	a5,a0,-11
    61c4:	00f417b3          	sll	a5,s0,a5
    61c8:	00000413          	li	s0,0
    61cc:	fcdff06f          	j	6198 <__floatunsidf+0x3c>
    61d0:	00000793          	li	a5,0
    61d4:	00000713          	li	a4,0
    61d8:	fc1ff06f          	j	6198 <__floatunsidf+0x3c>

000061dc <__clzsi2>:
    61dc:	000107b7          	lui	a5,0x10
    61e0:	02f57a63          	bgeu	a0,a5,6214 <__clzsi2+0x38>
    61e4:	0ff00793          	li	a5,255
    61e8:	00a7b7b3          	sltu	a5,a5,a0
    61ec:	00379793          	slli	a5,a5,0x3
    61f0:	00009737          	lui	a4,0x9
    61f4:	02000693          	li	a3,32
    61f8:	40f686b3          	sub	a3,a3,a5
    61fc:	00f55533          	srl	a0,a0,a5
    6200:	80070793          	addi	a5,a4,-2048 # 8800 <__clz_tab>
    6204:	00a78533          	add	a0,a5,a0
    6208:	00054503          	lbu	a0,0(a0)
    620c:	40a68533          	sub	a0,a3,a0
    6210:	00008067          	ret
    6214:	01000737          	lui	a4,0x1000
    6218:	01000793          	li	a5,16
    621c:	fce56ae3          	bltu	a0,a4,61f0 <__clzsi2+0x14>
    6220:	01800793          	li	a5,24
    6224:	fcdff06f          	j	61f0 <__clzsi2+0x14>
